
ctarget:     file format elf64-x86-64


Disassembly of section .init:

0000000000400c48 <_init>:
  400c48:	48 83 ec 08          	sub    $0x8,%rsp
  400c4c:	48 8b 05 a5 43 20 00 	mov    0x2043a5(%rip),%rax        # 604ff8 <__gmon_start__>
  400c53:	48 85 c0             	test   %rax,%rax
  400c56:	74 05                	je     400c5d <_init+0x15>
  400c58:	e8 43 02 00 00       	callq  400ea0 <__gmon_start__@plt>
  400c5d:	48 83 c4 08          	add    $0x8,%rsp
  400c61:	c3                   	retq   

Disassembly of section .plt:

0000000000400c70 <.plt>:
  400c70:	ff 35 92 43 20 00    	pushq  0x204392(%rip)        # 605008 <_GLOBAL_OFFSET_TABLE_+0x8>
  400c76:	ff 25 94 43 20 00    	jmpq   *0x204394(%rip)        # 605010 <_GLOBAL_OFFSET_TABLE_+0x10>
  400c7c:	0f 1f 40 00          	nopl   0x0(%rax)

0000000000400c80 <strcasecmp@plt>:
  400c80:	ff 25 92 43 20 00    	jmpq   *0x204392(%rip)        # 605018 <strcasecmp@GLIBC_2.2.5>
  400c86:	68 00 00 00 00       	pushq  $0x0
  400c8b:	e9 e0 ff ff ff       	jmpq   400c70 <.plt>

0000000000400c90 <__errno_location@plt>:
  400c90:	ff 25 8a 43 20 00    	jmpq   *0x20438a(%rip)        # 605020 <__errno_location@GLIBC_2.2.5>
  400c96:	68 01 00 00 00       	pushq  $0x1
  400c9b:	e9 d0 ff ff ff       	jmpq   400c70 <.plt>

0000000000400ca0 <srandom@plt>:
  400ca0:	ff 25 82 43 20 00    	jmpq   *0x204382(%rip)        # 605028 <srandom@GLIBC_2.2.5>
  400ca6:	68 02 00 00 00       	pushq  $0x2
  400cab:	e9 c0 ff ff ff       	jmpq   400c70 <.plt>

0000000000400cb0 <strncmp@plt>:
  400cb0:	ff 25 7a 43 20 00    	jmpq   *0x20437a(%rip)        # 605030 <strncmp@GLIBC_2.2.5>
  400cb6:	68 03 00 00 00       	pushq  $0x3
  400cbb:	e9 b0 ff ff ff       	jmpq   400c70 <.plt>

0000000000400cc0 <strcpy@plt>:
  400cc0:	ff 25 72 43 20 00    	jmpq   *0x204372(%rip)        # 605038 <strcpy@GLIBC_2.2.5>
  400cc6:	68 04 00 00 00       	pushq  $0x4
  400ccb:	e9 a0 ff ff ff       	jmpq   400c70 <.plt>

0000000000400cd0 <puts@plt>:
  400cd0:	ff 25 6a 43 20 00    	jmpq   *0x20436a(%rip)        # 605040 <puts@GLIBC_2.2.5>
  400cd6:	68 05 00 00 00       	pushq  $0x5
  400cdb:	e9 90 ff ff ff       	jmpq   400c70 <.plt>

0000000000400ce0 <write@plt>:
  400ce0:	ff 25 62 43 20 00    	jmpq   *0x204362(%rip)        # 605048 <write@GLIBC_2.2.5>
  400ce6:	68 06 00 00 00       	pushq  $0x6
  400ceb:	e9 80 ff ff ff       	jmpq   400c70 <.plt>

0000000000400cf0 <__stack_chk_fail@plt>:
  400cf0:	ff 25 5a 43 20 00    	jmpq   *0x20435a(%rip)        # 605050 <__stack_chk_fail@GLIBC_2.4>
  400cf6:	68 07 00 00 00       	pushq  $0x7
  400cfb:	e9 70 ff ff ff       	jmpq   400c70 <.plt>

0000000000400d00 <mmap@plt>:
  400d00:	ff 25 52 43 20 00    	jmpq   *0x204352(%rip)        # 605058 <mmap@GLIBC_2.2.5>
  400d06:	68 08 00 00 00       	pushq  $0x8
  400d0b:	e9 60 ff ff ff       	jmpq   400c70 <.plt>

0000000000400d10 <memset@plt>:
  400d10:	ff 25 4a 43 20 00    	jmpq   *0x20434a(%rip)        # 605060 <memset@GLIBC_2.2.5>
  400d16:	68 09 00 00 00       	pushq  $0x9
  400d1b:	e9 50 ff ff ff       	jmpq   400c70 <.plt>

0000000000400d20 <alarm@plt>:
  400d20:	ff 25 42 43 20 00    	jmpq   *0x204342(%rip)        # 605068 <alarm@GLIBC_2.2.5>
  400d26:	68 0a 00 00 00       	pushq  $0xa
  400d2b:	e9 40 ff ff ff       	jmpq   400c70 <.plt>

0000000000400d30 <close@plt>:
  400d30:	ff 25 3a 43 20 00    	jmpq   *0x20433a(%rip)        # 605070 <close@GLIBC_2.2.5>
  400d36:	68 0b 00 00 00       	pushq  $0xb
  400d3b:	e9 30 ff ff ff       	jmpq   400c70 <.plt>

0000000000400d40 <read@plt>:
  400d40:	ff 25 32 43 20 00    	jmpq   *0x204332(%rip)        # 605078 <read@GLIBC_2.2.5>
  400d46:	68 0c 00 00 00       	pushq  $0xc
  400d4b:	e9 20 ff ff ff       	jmpq   400c70 <.plt>

0000000000400d50 <__libc_start_main@plt>:
  400d50:	ff 25 2a 43 20 00    	jmpq   *0x20432a(%rip)        # 605080 <__libc_start_main@GLIBC_2.2.5>
  400d56:	68 0d 00 00 00       	pushq  $0xd
  400d5b:	e9 10 ff ff ff       	jmpq   400c70 <.plt>

0000000000400d60 <signal@plt>:
  400d60:	ff 25 22 43 20 00    	jmpq   *0x204322(%rip)        # 605088 <signal@GLIBC_2.2.5>
  400d66:	68 0e 00 00 00       	pushq  $0xe
  400d6b:	e9 00 ff ff ff       	jmpq   400c70 <.plt>

0000000000400d70 <gethostbyname@plt>:
  400d70:	ff 25 1a 43 20 00    	jmpq   *0x20431a(%rip)        # 605090 <gethostbyname@GLIBC_2.2.5>
  400d76:	68 0f 00 00 00       	pushq  $0xf
  400d7b:	e9 f0 fe ff ff       	jmpq   400c70 <.plt>

0000000000400d80 <__memmove_chk@plt>:
  400d80:	ff 25 12 43 20 00    	jmpq   *0x204312(%rip)        # 605098 <__memmove_chk@GLIBC_2.3.4>
  400d86:	68 10 00 00 00       	pushq  $0x10
  400d8b:	e9 e0 fe ff ff       	jmpq   400c70 <.plt>

0000000000400d90 <strtol@plt>:
  400d90:	ff 25 0a 43 20 00    	jmpq   *0x20430a(%rip)        # 6050a0 <strtol@GLIBC_2.2.5>
  400d96:	68 11 00 00 00       	pushq  $0x11
  400d9b:	e9 d0 fe ff ff       	jmpq   400c70 <.plt>

0000000000400da0 <memcpy@plt>:
  400da0:	ff 25 02 43 20 00    	jmpq   *0x204302(%rip)        # 6050a8 <memcpy@GLIBC_2.14>
  400da6:	68 12 00 00 00       	pushq  $0x12
  400dab:	e9 c0 fe ff ff       	jmpq   400c70 <.plt>

0000000000400db0 <time@plt>:
  400db0:	ff 25 fa 42 20 00    	jmpq   *0x2042fa(%rip)        # 6050b0 <time@GLIBC_2.2.5>
  400db6:	68 13 00 00 00       	pushq  $0x13
  400dbb:	e9 b0 fe ff ff       	jmpq   400c70 <.plt>

0000000000400dc0 <random@plt>:
  400dc0:	ff 25 f2 42 20 00    	jmpq   *0x2042f2(%rip)        # 6050b8 <random@GLIBC_2.2.5>
  400dc6:	68 14 00 00 00       	pushq  $0x14
  400dcb:	e9 a0 fe ff ff       	jmpq   400c70 <.plt>

0000000000400dd0 <_IO_getc@plt>:
  400dd0:	ff 25 ea 42 20 00    	jmpq   *0x2042ea(%rip)        # 6050c0 <_IO_getc@GLIBC_2.2.5>
  400dd6:	68 15 00 00 00       	pushq  $0x15
  400ddb:	e9 90 fe ff ff       	jmpq   400c70 <.plt>

0000000000400de0 <__isoc99_sscanf@plt>:
  400de0:	ff 25 e2 42 20 00    	jmpq   *0x2042e2(%rip)        # 6050c8 <__isoc99_sscanf@GLIBC_2.7>
  400de6:	68 16 00 00 00       	pushq  $0x16
  400deb:	e9 80 fe ff ff       	jmpq   400c70 <.plt>

0000000000400df0 <munmap@plt>:
  400df0:	ff 25 da 42 20 00    	jmpq   *0x2042da(%rip)        # 6050d0 <munmap@GLIBC_2.2.5>
  400df6:	68 17 00 00 00       	pushq  $0x17
  400dfb:	e9 70 fe ff ff       	jmpq   400c70 <.plt>

0000000000400e00 <__printf_chk@plt>:
  400e00:	ff 25 d2 42 20 00    	jmpq   *0x2042d2(%rip)        # 6050d8 <__printf_chk@GLIBC_2.3.4>
  400e06:	68 18 00 00 00       	pushq  $0x18
  400e0b:	e9 60 fe ff ff       	jmpq   400c70 <.plt>

0000000000400e10 <fopen@plt>:
  400e10:	ff 25 ca 42 20 00    	jmpq   *0x2042ca(%rip)        # 6050e0 <fopen@GLIBC_2.2.5>
  400e16:	68 19 00 00 00       	pushq  $0x19
  400e1b:	e9 50 fe ff ff       	jmpq   400c70 <.plt>

0000000000400e20 <getopt@plt>:
  400e20:	ff 25 c2 42 20 00    	jmpq   *0x2042c2(%rip)        # 6050e8 <getopt@GLIBC_2.2.5>
  400e26:	68 1a 00 00 00       	pushq  $0x1a
  400e2b:	e9 40 fe ff ff       	jmpq   400c70 <.plt>

0000000000400e30 <strtoul@plt>:
  400e30:	ff 25 ba 42 20 00    	jmpq   *0x2042ba(%rip)        # 6050f0 <strtoul@GLIBC_2.2.5>
  400e36:	68 1b 00 00 00       	pushq  $0x1b
  400e3b:	e9 30 fe ff ff       	jmpq   400c70 <.plt>

0000000000400e40 <gethostname@plt>:
  400e40:	ff 25 b2 42 20 00    	jmpq   *0x2042b2(%rip)        # 6050f8 <gethostname@GLIBC_2.2.5>
  400e46:	68 1c 00 00 00       	pushq  $0x1c
  400e4b:	e9 20 fe ff ff       	jmpq   400c70 <.plt>

0000000000400e50 <exit@plt>:
  400e50:	ff 25 aa 42 20 00    	jmpq   *0x2042aa(%rip)        # 605100 <exit@GLIBC_2.2.5>
  400e56:	68 1d 00 00 00       	pushq  $0x1d
  400e5b:	e9 10 fe ff ff       	jmpq   400c70 <.plt>

0000000000400e60 <connect@plt>:
  400e60:	ff 25 a2 42 20 00    	jmpq   *0x2042a2(%rip)        # 605108 <connect@GLIBC_2.2.5>
  400e66:	68 1e 00 00 00       	pushq  $0x1e
  400e6b:	e9 00 fe ff ff       	jmpq   400c70 <.plt>

0000000000400e70 <__fprintf_chk@plt>:
  400e70:	ff 25 9a 42 20 00    	jmpq   *0x20429a(%rip)        # 605110 <__fprintf_chk@GLIBC_2.3.4>
  400e76:	68 1f 00 00 00       	pushq  $0x1f
  400e7b:	e9 f0 fd ff ff       	jmpq   400c70 <.plt>

0000000000400e80 <__sprintf_chk@plt>:
  400e80:	ff 25 92 42 20 00    	jmpq   *0x204292(%rip)        # 605118 <__sprintf_chk@GLIBC_2.3.4>
  400e86:	68 20 00 00 00       	pushq  $0x20
  400e8b:	e9 e0 fd ff ff       	jmpq   400c70 <.plt>

0000000000400e90 <socket@plt>:
  400e90:	ff 25 8a 42 20 00    	jmpq   *0x20428a(%rip)        # 605120 <socket@GLIBC_2.2.5>
  400e96:	68 21 00 00 00       	pushq  $0x21
  400e9b:	e9 d0 fd ff ff       	jmpq   400c70 <.plt>

Disassembly of section .plt.got:

0000000000400ea0 <__gmon_start__@plt>:
  400ea0:	ff 25 52 41 20 00    	jmpq   *0x204152(%rip)        # 604ff8 <__gmon_start__>
  400ea6:	66 90                	xchg   %ax,%ax

Disassembly of section .text:

0000000000400eb0 <_start>:
  400eb0:	31 ed                	xor    %ebp,%ebp
  400eb2:	49 89 d1             	mov    %rdx,%r9
  400eb5:	5e                   	pop    %rsi
  400eb6:	48 89 e2             	mov    %rsp,%rdx
  400eb9:	48 83 e4 f0          	and    $0xfffffffffffffff0,%rsp
  400ebd:	50                   	push   %rax
  400ebe:	54                   	push   %rsp
  400ebf:	49 c7 c0 30 2e 40 00 	mov    $0x402e30,%r8
  400ec6:	48 c7 c1 c0 2d 40 00 	mov    $0x402dc0,%rcx
  400ecd:	48 c7 c7 b5 11 40 00 	mov    $0x4011b5,%rdi
  400ed4:	e8 77 fe ff ff       	callq  400d50 <__libc_start_main@plt>
  400ed9:	f4                   	hlt    
  400eda:	66 0f 1f 44 00 00    	nopw   0x0(%rax,%rax,1)

0000000000400ee0 <deregister_tm_clones>:
  400ee0:	b8 b7 54 60 00       	mov    $0x6054b7,%eax
  400ee5:	55                   	push   %rbp
  400ee6:	48 2d b0 54 60 00    	sub    $0x6054b0,%rax
  400eec:	48 83 f8 0e          	cmp    $0xe,%rax
  400ef0:	48 89 e5             	mov    %rsp,%rbp
  400ef3:	76 1b                	jbe    400f10 <deregister_tm_clones+0x30>
  400ef5:	b8 00 00 00 00       	mov    $0x0,%eax
  400efa:	48 85 c0             	test   %rax,%rax
  400efd:	74 11                	je     400f10 <deregister_tm_clones+0x30>
  400eff:	5d                   	pop    %rbp
  400f00:	bf b0 54 60 00       	mov    $0x6054b0,%edi
  400f05:	ff e0                	jmpq   *%rax
  400f07:	66 0f 1f 84 00 00 00 	nopw   0x0(%rax,%rax,1)
  400f0e:	00 00 
  400f10:	5d                   	pop    %rbp
  400f11:	c3                   	retq   
  400f12:	0f 1f 40 00          	nopl   0x0(%rax)
  400f16:	66 2e 0f 1f 84 00 00 	nopw   %cs:0x0(%rax,%rax,1)
  400f1d:	00 00 00 

0000000000400f20 <register_tm_clones>:
  400f20:	be b0 54 60 00       	mov    $0x6054b0,%esi
  400f25:	55                   	push   %rbp
  400f26:	48 81 ee b0 54 60 00 	sub    $0x6054b0,%rsi
  400f2d:	48 c1 fe 03          	sar    $0x3,%rsi
  400f31:	48 89 e5             	mov    %rsp,%rbp
  400f34:	48 89 f0             	mov    %rsi,%rax
  400f37:	48 c1 e8 3f          	shr    $0x3f,%rax
  400f3b:	48 01 c6             	add    %rax,%rsi
  400f3e:	48 d1 fe             	sar    %rsi
  400f41:	74 15                	je     400f58 <register_tm_clones+0x38>
  400f43:	b8 00 00 00 00       	mov    $0x0,%eax
  400f48:	48 85 c0             	test   %rax,%rax
  400f4b:	74 0b                	je     400f58 <register_tm_clones+0x38>
  400f4d:	5d                   	pop    %rbp
  400f4e:	bf b0 54 60 00       	mov    $0x6054b0,%edi
  400f53:	ff e0                	jmpq   *%rax
  400f55:	0f 1f 00             	nopl   (%rax)
  400f58:	5d                   	pop    %rbp
  400f59:	c3                   	retq   
  400f5a:	66 0f 1f 44 00 00    	nopw   0x0(%rax,%rax,1)

0000000000400f60 <__do_global_dtors_aux>:
  400f60:	80 3d 81 45 20 00 00 	cmpb   $0x0,0x204581(%rip)        # 6054e8 <completed.7594>
  400f67:	75 11                	jne    400f7a <__do_global_dtors_aux+0x1a>
  400f69:	55                   	push   %rbp
  400f6a:	48 89 e5             	mov    %rsp,%rbp
  400f6d:	e8 6e ff ff ff       	callq  400ee0 <deregister_tm_clones>
  400f72:	5d                   	pop    %rbp
  400f73:	c6 05 6e 45 20 00 01 	movb   $0x1,0x20456e(%rip)        # 6054e8 <completed.7594>
  400f7a:	f3 c3                	repz retq 
  400f7c:	0f 1f 40 00          	nopl   0x0(%rax)

0000000000400f80 <frame_dummy>:
  400f80:	bf 20 4e 60 00       	mov    $0x604e20,%edi
  400f85:	48 83 3f 00          	cmpq   $0x0,(%rdi)
  400f89:	75 05                	jne    400f90 <frame_dummy+0x10>
  400f8b:	eb 93                	jmp    400f20 <register_tm_clones>
  400f8d:	0f 1f 00             	nopl   (%rax)
  400f90:	b8 00 00 00 00       	mov    $0x0,%eax
  400f95:	48 85 c0             	test   %rax,%rax
  400f98:	74 f1                	je     400f8b <frame_dummy+0xb>
  400f9a:	55                   	push   %rbp
  400f9b:	48 89 e5             	mov    %rsp,%rbp
  400f9e:	ff d0                	callq  *%rax
  400fa0:	5d                   	pop    %rbp
  400fa1:	e9 7a ff ff ff       	jmpq   400f20 <register_tm_clones>

0000000000400fa6 <usage>:
  400fa6:	48 83 ec 08          	sub    $0x8,%rsp
  400faa:	48 89 fa             	mov    %rdi,%rdx
  400fad:	83 3d 74 45 20 00 00 	cmpl   $0x0,0x204574(%rip)        # 605528 <is_checker>
  400fb4:	74 3e                	je     400ff4 <usage+0x4e>
  400fb6:	be 48 2e 40 00       	mov    $0x402e48,%esi
  400fbb:	bf 01 00 00 00       	mov    $0x1,%edi
  400fc0:	b8 00 00 00 00       	mov    $0x0,%eax
  400fc5:	e8 36 fe ff ff       	callq  400e00 <__printf_chk@plt>
  400fca:	bf 80 2e 40 00       	mov    $0x402e80,%edi
  400fcf:	e8 fc fc ff ff       	callq  400cd0 <puts@plt>
  400fd4:	bf f8 2f 40 00       	mov    $0x402ff8,%edi
  400fd9:	e8 f2 fc ff ff       	callq  400cd0 <puts@plt>
  400fde:	bf a8 2e 40 00       	mov    $0x402ea8,%edi
  400fe3:	e8 e8 fc ff ff       	callq  400cd0 <puts@plt>
  400fe8:	bf 12 30 40 00       	mov    $0x403012,%edi
  400fed:	e8 de fc ff ff       	callq  400cd0 <puts@plt>
  400ff2:	eb 32                	jmp    401026 <usage+0x80>
  400ff4:	be 2e 30 40 00       	mov    $0x40302e,%esi
  400ff9:	bf 01 00 00 00       	mov    $0x1,%edi
  400ffe:	b8 00 00 00 00       	mov    $0x0,%eax
  401003:	e8 f8 fd ff ff       	callq  400e00 <__printf_chk@plt>
  401008:	bf d0 2e 40 00       	mov    $0x402ed0,%edi
  40100d:	e8 be fc ff ff       	callq  400cd0 <puts@plt>
  401012:	bf f8 2e 40 00       	mov    $0x402ef8,%edi
  401017:	e8 b4 fc ff ff       	callq  400cd0 <puts@plt>
  40101c:	bf 4c 30 40 00       	mov    $0x40304c,%edi
  401021:	e8 aa fc ff ff       	callq  400cd0 <puts@plt>
  401026:	bf 00 00 00 00       	mov    $0x0,%edi
  40102b:	e8 20 fe ff ff       	callq  400e50 <exit@plt>

0000000000401030 <initialize_target>:
  401030:	55                   	push   %rbp
  401031:	53                   	push   %rbx
  401032:	48 81 ec 18 21 00 00 	sub    $0x2118,%rsp
  401039:	89 f5                	mov    %esi,%ebp
  40103b:	64 48 8b 04 25 28 00 	mov    %fs:0x28,%rax
  401042:	00 00 
  401044:	48 89 84 24 08 21 00 	mov    %rax,0x2108(%rsp)
  40104b:	00 
  40104c:	31 c0                	xor    %eax,%eax
  40104e:	89 3d c4 44 20 00    	mov    %edi,0x2044c4(%rip)        # 605518 <check_level>
  401054:	8b 3d 0e 41 20 00    	mov    0x20410e(%rip),%edi        # 605168 <target_id>
  40105a:	e8 3f 1d 00 00       	callq  402d9e <gencookie>
  40105f:	89 05 bf 44 20 00    	mov    %eax,0x2044bf(%rip)        # 605524 <cookie>
  401065:	89 c7                	mov    %eax,%edi
  401067:	e8 32 1d 00 00       	callq  402d9e <gencookie>
  40106c:	89 05 ae 44 20 00    	mov    %eax,0x2044ae(%rip)        # 605520 <authkey>
  401072:	8b 05 f0 40 20 00    	mov    0x2040f0(%rip),%eax        # 605168 <target_id>
  401078:	8d 78 01             	lea    0x1(%rax),%edi
  40107b:	e8 20 fc ff ff       	callq  400ca0 <srandom@plt>
  401080:	e8 3b fd ff ff       	callq  400dc0 <random@plt>
  401085:	89 c7                	mov    %eax,%edi
  401087:	e8 03 03 00 00       	callq  40138f <scramble>
  40108c:	89 c3                	mov    %eax,%ebx
  40108e:	85 ed                	test   %ebp,%ebp
  401090:	74 18                	je     4010aa <initialize_target+0x7a>
  401092:	bf 00 00 00 00       	mov    $0x0,%edi
  401097:	e8 14 fd ff ff       	callq  400db0 <time@plt>
  40109c:	89 c7                	mov    %eax,%edi
  40109e:	e8 fd fb ff ff       	callq  400ca0 <srandom@plt>
  4010a3:	e8 18 fd ff ff       	callq  400dc0 <random@plt>
  4010a8:	eb 05                	jmp    4010af <initialize_target+0x7f>
  4010aa:	b8 00 00 00 00       	mov    $0x0,%eax
  4010af:	01 c3                	add    %eax,%ebx
  4010b1:	0f b7 db             	movzwl %bx,%ebx
  4010b4:	8d 04 dd 00 01 00 00 	lea    0x100(,%rbx,8),%eax
  4010bb:	89 c0                	mov    %eax,%eax
  4010bd:	48 89 05 dc 43 20 00 	mov    %rax,0x2043dc(%rip)        # 6054a0 <buf_offset>
  4010c4:	c6 05 7d 50 20 00 63 	movb   $0x63,0x20507d(%rip)        # 606148 <target_prefix>
  4010cb:	83 3d d6 43 20 00 00 	cmpl   $0x0,0x2043d6(%rip)        # 6054a8 <notify>
  4010d2:	0f 84 bb 00 00 00    	je     401193 <initialize_target+0x163>
  4010d8:	83 3d 49 44 20 00 00 	cmpl   $0x0,0x204449(%rip)        # 605528 <is_checker>
  4010df:	0f 85 ae 00 00 00    	jne    401193 <initialize_target+0x163>
  4010e5:	be 00 01 00 00       	mov    $0x100,%esi
  4010ea:	48 89 e7             	mov    %rsp,%rdi
  4010ed:	e8 4e fd ff ff       	callq  400e40 <gethostname@plt>
  4010f2:	85 c0                	test   %eax,%eax
  4010f4:	74 25                	je     40111b <initialize_target+0xeb>
  4010f6:	bf 28 2f 40 00       	mov    $0x402f28,%edi
  4010fb:	e8 d0 fb ff ff       	callq  400cd0 <puts@plt>
  401100:	bf 08 00 00 00       	mov    $0x8,%edi
  401105:	e8 46 fd ff ff       	callq  400e50 <exit@plt>
  40110a:	48 89 e6             	mov    %rsp,%rsi
  40110d:	e8 6e fb ff ff       	callq  400c80 <strcasecmp@plt>
  401112:	85 c0                	test   %eax,%eax
  401114:	74 21                	je     401137 <initialize_target+0x107>
  401116:	83 c3 01             	add    $0x1,%ebx
  401119:	eb 05                	jmp    401120 <initialize_target+0xf0>
  40111b:	bb 00 00 00 00       	mov    $0x0,%ebx
  401120:	48 63 c3             	movslq %ebx,%rax
  401123:	48 8b 3c c5 80 51 60 	mov    0x605180(,%rax,8),%rdi
  40112a:	00 
  40112b:	48 85 ff             	test   %rdi,%rdi
  40112e:	75 da                	jne    40110a <initialize_target+0xda>
  401130:	b8 00 00 00 00       	mov    $0x0,%eax
  401135:	eb 05                	jmp    40113c <initialize_target+0x10c>
  401137:	b8 01 00 00 00       	mov    $0x1,%eax
  40113c:	85 c0                	test   %eax,%eax
  40113e:	75 1c                	jne    40115c <initialize_target+0x12c>
  401140:	48 89 e2             	mov    %rsp,%rdx
  401143:	be 60 2f 40 00       	mov    $0x402f60,%esi
  401148:	bf 01 00 00 00       	mov    $0x1,%edi
  40114d:	e8 ae fc ff ff       	callq  400e00 <__printf_chk@plt>
  401152:	bf 08 00 00 00       	mov    $0x8,%edi
  401157:	e8 f4 fc ff ff       	callq  400e50 <exit@plt>
  40115c:	48 8d bc 24 00 01 00 	lea    0x100(%rsp),%rdi
  401163:	00 
  401164:	e8 9f 19 00 00       	callq  402b08 <init_driver>
  401169:	85 c0                	test   %eax,%eax
  40116b:	79 26                	jns    401193 <initialize_target+0x163>
  40116d:	48 8d 94 24 00 01 00 	lea    0x100(%rsp),%rdx
  401174:	00 
  401175:	be a0 2f 40 00       	mov    $0x402fa0,%esi
  40117a:	bf 01 00 00 00       	mov    $0x1,%edi
  40117f:	b8 00 00 00 00       	mov    $0x0,%eax
  401184:	e8 77 fc ff ff       	callq  400e00 <__printf_chk@plt>
  401189:	bf 08 00 00 00       	mov    $0x8,%edi
  40118e:	e8 bd fc ff ff       	callq  400e50 <exit@plt>
  401193:	48 8b 84 24 08 21 00 	mov    0x2108(%rsp),%rax
  40119a:	00 
  40119b:	64 48 33 04 25 28 00 	xor    %fs:0x28,%rax
  4011a2:	00 00 
  4011a4:	74 05                	je     4011ab <initialize_target+0x17b>
  4011a6:	e8 45 fb ff ff       	callq  400cf0 <__stack_chk_fail@plt>
  4011ab:	48 81 c4 18 21 00 00 	add    $0x2118,%rsp
  4011b2:	5b                   	pop    %rbx
  4011b3:	5d                   	pop    %rbp
  4011b4:	c3                   	retq   

00000000004011b5 <main>:
  4011b5:	41 56                	push   %r14
  4011b7:	41 55                	push   %r13
  4011b9:	41 54                	push   %r12
  4011bb:	55                   	push   %rbp
  4011bc:	53                   	push   %rbx
  4011bd:	41 89 fc             	mov    %edi,%r12d
  4011c0:	48 89 f3             	mov    %rsi,%rbx
  4011c3:	be 43 1e 40 00       	mov    $0x401e43,%esi
  4011c8:	bf 0b 00 00 00       	mov    $0xb,%edi
  4011cd:	e8 8e fb ff ff       	callq  400d60 <signal@plt>
  4011d2:	be f5 1d 40 00       	mov    $0x401df5,%esi
  4011d7:	bf 07 00 00 00       	mov    $0x7,%edi
  4011dc:	e8 7f fb ff ff       	callq  400d60 <signal@plt>
  4011e1:	be 91 1e 40 00       	mov    $0x401e91,%esi
  4011e6:	bf 04 00 00 00       	mov    $0x4,%edi
  4011eb:	e8 70 fb ff ff       	callq  400d60 <signal@plt>
  4011f0:	83 3d 31 43 20 00 00 	cmpl   $0x0,0x204331(%rip)        # 605528 <is_checker>
  4011f7:	74 20                	je     401219 <main+0x64>
  4011f9:	be df 1e 40 00       	mov    $0x401edf,%esi
  4011fe:	bf 0e 00 00 00       	mov    $0xe,%edi
  401203:	e8 58 fb ff ff       	callq  400d60 <signal@plt>
  401208:	bf 05 00 00 00       	mov    $0x5,%edi
  40120d:	e8 0e fb ff ff       	callq  400d20 <alarm@plt>
  401212:	bd 6a 30 40 00       	mov    $0x40306a,%ebp
  401217:	eb 05                	jmp    40121e <main+0x69>
  401219:	bd 65 30 40 00       	mov    $0x403065,%ebp
  40121e:	48 8b 05 9b 42 20 00 	mov    0x20429b(%rip),%rax        # 6054c0 <stdin@@GLIBC_2.2.5>
  401225:	48 89 05 e4 42 20 00 	mov    %rax,0x2042e4(%rip)        # 605510 <infile>
  40122c:	41 bd 00 00 00 00    	mov    $0x0,%r13d
  401232:	41 be 00 00 00 00    	mov    $0x0,%r14d
  401238:	e9 c6 00 00 00       	jmpq   401303 <main+0x14e>
  40123d:	83 e8 61             	sub    $0x61,%eax
  401240:	3c 10                	cmp    $0x10,%al
  401242:	0f 87 9c 00 00 00    	ja     4012e4 <main+0x12f>
  401248:	0f b6 c0             	movzbl %al,%eax
  40124b:	ff 24 c5 b0 30 40 00 	jmpq   *0x4030b0(,%rax,8)
  401252:	48 8b 3b             	mov    (%rbx),%rdi
  401255:	e8 4c fd ff ff       	callq  400fa6 <usage>
  40125a:	be 5d 34 40 00       	mov    $0x40345d,%esi
  40125f:	48 8b 3d 62 42 20 00 	mov    0x204262(%rip),%rdi        # 6054c8 <optarg@@GLIBC_2.2.5>
  401266:	e8 a5 fb ff ff       	callq  400e10 <fopen@plt>
  40126b:	48 89 05 9e 42 20 00 	mov    %rax,0x20429e(%rip)        # 605510 <infile>
  401272:	48 85 c0             	test   %rax,%rax
  401275:	0f 85 88 00 00 00    	jne    401303 <main+0x14e>
  40127b:	48 8b 0d 46 42 20 00 	mov    0x204246(%rip),%rcx        # 6054c8 <optarg@@GLIBC_2.2.5>
  401282:	ba 72 30 40 00       	mov    $0x403072,%edx
  401287:	be 01 00 00 00       	mov    $0x1,%esi
  40128c:	48 8b 3d 4d 42 20 00 	mov    0x20424d(%rip),%rdi        # 6054e0 <stderr@@GLIBC_2.2.5>
  401293:	e8 d8 fb ff ff       	callq  400e70 <__fprintf_chk@plt>
  401298:	b8 01 00 00 00       	mov    $0x1,%eax
  40129d:	e9 e4 00 00 00       	jmpq   401386 <main+0x1d1>
  4012a2:	ba 10 00 00 00       	mov    $0x10,%edx
  4012a7:	be 00 00 00 00       	mov    $0x0,%esi
  4012ac:	48 8b 3d 15 42 20 00 	mov    0x204215(%rip),%rdi        # 6054c8 <optarg@@GLIBC_2.2.5>
  4012b3:	e8 78 fb ff ff       	callq  400e30 <strtoul@plt>
  4012b8:	41 89 c6             	mov    %eax,%r14d
  4012bb:	eb 46                	jmp    401303 <main+0x14e>
  4012bd:	ba 0a 00 00 00       	mov    $0xa,%edx
  4012c2:	be 00 00 00 00       	mov    $0x0,%esi
  4012c7:	48 8b 3d fa 41 20 00 	mov    0x2041fa(%rip),%rdi        # 6054c8 <optarg@@GLIBC_2.2.5>
  4012ce:	e8 bd fa ff ff       	callq  400d90 <strtol@plt>
  4012d3:	41 89 c5             	mov    %eax,%r13d
  4012d6:	eb 2b                	jmp    401303 <main+0x14e>
  4012d8:	c7 05 c6 41 20 00 00 	movl   $0x0,0x2041c6(%rip)        # 6054a8 <notify>
  4012df:	00 00 00 
  4012e2:	eb 1f                	jmp    401303 <main+0x14e>
  4012e4:	0f be d2             	movsbl %dl,%edx
  4012e7:	be 8f 30 40 00       	mov    $0x40308f,%esi
  4012ec:	bf 01 00 00 00       	mov    $0x1,%edi
  4012f1:	b8 00 00 00 00       	mov    $0x0,%eax
  4012f6:	e8 05 fb ff ff       	callq  400e00 <__printf_chk@plt>
  4012fb:	48 8b 3b             	mov    (%rbx),%rdi
  4012fe:	e8 a3 fc ff ff       	callq  400fa6 <usage>
  401303:	48 89 ea             	mov    %rbp,%rdx
  401306:	48 89 de             	mov    %rbx,%rsi
  401309:	44 89 e7             	mov    %r12d,%edi
  40130c:	e8 0f fb ff ff       	callq  400e20 <getopt@plt>
  401311:	89 c2                	mov    %eax,%edx
  401313:	3c ff                	cmp    $0xff,%al
  401315:	0f 85 22 ff ff ff    	jne    40123d <main+0x88>
  40131b:	be 00 00 00 00       	mov    $0x0,%esi
  401320:	44 89 ef             	mov    %r13d,%edi
  401323:	e8 08 fd ff ff       	callq  401030 <initialize_target>
  401328:	83 3d f9 41 20 00 00 	cmpl   $0x0,0x2041f9(%rip)        # 605528 <is_checker>
  40132f:	74 2a                	je     40135b <main+0x1a6>
  401331:	44 3b 35 e8 41 20 00 	cmp    0x2041e8(%rip),%r14d        # 605520 <authkey>
  401338:	74 21                	je     40135b <main+0x1a6>
  40133a:	44 89 f2             	mov    %r14d,%edx
  40133d:	be c8 2f 40 00       	mov    $0x402fc8,%esi
  401342:	bf 01 00 00 00       	mov    $0x1,%edi
  401347:	b8 00 00 00 00       	mov    $0x0,%eax
  40134c:	e8 af fa ff ff       	callq  400e00 <__printf_chk@plt>
  401351:	b8 00 00 00 00       	mov    $0x0,%eax
  401356:	e8 36 07 00 00       	callq  401a91 <check_fail>
  40135b:	8b 15 c3 41 20 00    	mov    0x2041c3(%rip),%edx        # 605524 <cookie>
  401361:	be a2 30 40 00       	mov    $0x4030a2,%esi
  401366:	bf 01 00 00 00       	mov    $0x1,%edi
  40136b:	b8 00 00 00 00       	mov    $0x0,%eax
  401370:	e8 8b fa ff ff       	callq  400e00 <__printf_chk@plt>
  401375:	48 8b 3d 24 41 20 00 	mov    0x204124(%rip),%rdi        # 6054a0 <buf_offset>
  40137c:	e8 5e 0c 00 00       	callq  401fdf <stable_launch>
  401381:	b8 00 00 00 00       	mov    $0x0,%eax
  401386:	5b                   	pop    %rbx
  401387:	5d                   	pop    %rbp
  401388:	41 5c                	pop    %r12
  40138a:	41 5d                	pop    %r13
  40138c:	41 5e                	pop    %r14
  40138e:	c3                   	retq   

000000000040138f <scramble>:
  40138f:	48 83 ec 38          	sub    $0x38,%rsp
  401393:	64 48 8b 04 25 28 00 	mov    %fs:0x28,%rax
  40139a:	00 00 
  40139c:	48 89 44 24 28       	mov    %rax,0x28(%rsp)
  4013a1:	31 c0                	xor    %eax,%eax
  4013a3:	eb 10                	jmp    4013b5 <scramble+0x26>
  4013a5:	69 d0 ed 8a 00 00    	imul   $0x8aed,%eax,%edx
  4013ab:	01 fa                	add    %edi,%edx
  4013ad:	89 c1                	mov    %eax,%ecx
  4013af:	89 14 8c             	mov    %edx,(%rsp,%rcx,4)
  4013b2:	83 c0 01             	add    $0x1,%eax
  4013b5:	83 f8 09             	cmp    $0x9,%eax
  4013b8:	76 eb                	jbe    4013a5 <scramble+0x16>
  4013ba:	8b 44 24 24          	mov    0x24(%rsp),%eax
  4013be:	69 c0 d8 56 00 00    	imul   $0x56d8,%eax,%eax
  4013c4:	89 44 24 24          	mov    %eax,0x24(%rsp)
  4013c8:	8b 44 24 18          	mov    0x18(%rsp),%eax
  4013cc:	69 c0 f0 a4 00 00    	imul   $0xa4f0,%eax,%eax
  4013d2:	89 44 24 18          	mov    %eax,0x18(%rsp)
  4013d6:	8b 44 24 24          	mov    0x24(%rsp),%eax
  4013da:	69 c0 72 6a 00 00    	imul   $0x6a72,%eax,%eax
  4013e0:	89 44 24 24          	mov    %eax,0x24(%rsp)
  4013e4:	8b 44 24 18          	mov    0x18(%rsp),%eax
  4013e8:	69 c0 fa c6 00 00    	imul   $0xc6fa,%eax,%eax
  4013ee:	89 44 24 18          	mov    %eax,0x18(%rsp)
  4013f2:	8b 44 24 1c          	mov    0x1c(%rsp),%eax
  4013f6:	69 c0 27 b9 00 00    	imul   $0xb927,%eax,%eax
  4013fc:	89 44 24 1c          	mov    %eax,0x1c(%rsp)
  401400:	8b 44 24 1c          	mov    0x1c(%rsp),%eax
  401404:	69 c0 83 0d 00 00    	imul   $0xd83,%eax,%eax
  40140a:	89 44 24 1c          	mov    %eax,0x1c(%rsp)
  40140e:	8b 44 24 04          	mov    0x4(%rsp),%eax
  401412:	69 c0 4d b0 00 00    	imul   $0xb04d,%eax,%eax
  401418:	89 44 24 04          	mov    %eax,0x4(%rsp)
  40141c:	8b 44 24 24          	mov    0x24(%rsp),%eax
  401420:	69 c0 19 eb 00 00    	imul   $0xeb19,%eax,%eax
  401426:	89 44 24 24          	mov    %eax,0x24(%rsp)
  40142a:	8b 44 24 14          	mov    0x14(%rsp),%eax
  40142e:	69 c0 7c 3d 00 00    	imul   $0x3d7c,%eax,%eax
  401434:	89 44 24 14          	mov    %eax,0x14(%rsp)
  401438:	8b 54 24 24          	mov    0x24(%rsp),%edx
  40143c:	89 d0                	mov    %edx,%eax
  40143e:	c1 e0 0c             	shl    $0xc,%eax
  401441:	29 d0                	sub    %edx,%eax
  401443:	89 44 24 24          	mov    %eax,0x24(%rsp)
  401447:	8b 04 24             	mov    (%rsp),%eax
  40144a:	69 c0 4e ff 00 00    	imul   $0xff4e,%eax,%eax
  401450:	89 04 24             	mov    %eax,(%rsp)
  401453:	8b 44 24 24          	mov    0x24(%rsp),%eax
  401457:	69 c0 b4 8e 00 00    	imul   $0x8eb4,%eax,%eax
  40145d:	89 44 24 24          	mov    %eax,0x24(%rsp)
  401461:	8b 44 24 14          	mov    0x14(%rsp),%eax
  401465:	69 c0 59 ae 00 00    	imul   $0xae59,%eax,%eax
  40146b:	89 44 24 14          	mov    %eax,0x14(%rsp)
  40146f:	8b 44 24 24          	mov    0x24(%rsp),%eax
  401473:	69 c0 c7 26 00 00    	imul   $0x26c7,%eax,%eax
  401479:	89 44 24 24          	mov    %eax,0x24(%rsp)
  40147d:	8b 44 24 08          	mov    0x8(%rsp),%eax
  401481:	69 c0 9b e4 00 00    	imul   $0xe49b,%eax,%eax
  401487:	89 44 24 08          	mov    %eax,0x8(%rsp)
  40148b:	8b 44 24 08          	mov    0x8(%rsp),%eax
  40148f:	69 c0 b0 b0 00 00    	imul   $0xb0b0,%eax,%eax
  401495:	89 44 24 08          	mov    %eax,0x8(%rsp)
  401499:	8b 44 24 20          	mov    0x20(%rsp),%eax
  40149d:	69 c0 59 34 00 00    	imul   $0x3459,%eax,%eax
  4014a3:	89 44 24 20          	mov    %eax,0x20(%rsp)
  4014a7:	8b 44 24 24          	mov    0x24(%rsp),%eax
  4014ab:	69 c0 56 c2 00 00    	imul   $0xc256,%eax,%eax
  4014b1:	89 44 24 24          	mov    %eax,0x24(%rsp)
  4014b5:	8b 44 24 10          	mov    0x10(%rsp),%eax
  4014b9:	69 c0 e1 67 00 00    	imul   $0x67e1,%eax,%eax
  4014bf:	89 44 24 10          	mov    %eax,0x10(%rsp)
  4014c3:	8b 44 24 0c          	mov    0xc(%rsp),%eax
  4014c7:	69 c0 41 83 00 00    	imul   $0x8341,%eax,%eax
  4014cd:	89 44 24 0c          	mov    %eax,0xc(%rsp)
  4014d1:	8b 04 24             	mov    (%rsp),%eax
  4014d4:	69 c0 4b 20 00 00    	imul   $0x204b,%eax,%eax
  4014da:	89 04 24             	mov    %eax,(%rsp)
  4014dd:	8b 44 24 04          	mov    0x4(%rsp),%eax
  4014e1:	69 c0 f2 3a 00 00    	imul   $0x3af2,%eax,%eax
  4014e7:	89 44 24 04          	mov    %eax,0x4(%rsp)
  4014eb:	8b 44 24 24          	mov    0x24(%rsp),%eax
  4014ef:	69 c0 79 32 00 00    	imul   $0x3279,%eax,%eax
  4014f5:	89 44 24 24          	mov    %eax,0x24(%rsp)
  4014f9:	8b 44 24 04          	mov    0x4(%rsp),%eax
  4014fd:	69 c0 64 fe 00 00    	imul   $0xfe64,%eax,%eax
  401503:	89 44 24 04          	mov    %eax,0x4(%rsp)
  401507:	8b 44 24 04          	mov    0x4(%rsp),%eax
  40150b:	69 c0 d1 10 00 00    	imul   $0x10d1,%eax,%eax
  401511:	89 44 24 04          	mov    %eax,0x4(%rsp)
  401515:	8b 44 24 1c          	mov    0x1c(%rsp),%eax
  401519:	69 c0 16 f3 00 00    	imul   $0xf316,%eax,%eax
  40151f:	89 44 24 1c          	mov    %eax,0x1c(%rsp)
  401523:	8b 44 24 24          	mov    0x24(%rsp),%eax
  401527:	69 c0 ef 04 00 00    	imul   $0x4ef,%eax,%eax
  40152d:	89 44 24 24          	mov    %eax,0x24(%rsp)
  401531:	8b 44 24 18          	mov    0x18(%rsp),%eax
  401535:	69 c0 1c d5 00 00    	imul   $0xd51c,%eax,%eax
  40153b:	89 44 24 18          	mov    %eax,0x18(%rsp)
  40153f:	8b 44 24 04          	mov    0x4(%rsp),%eax
  401543:	89 c2                	mov    %eax,%edx
  401545:	c1 e2 0e             	shl    $0xe,%edx
  401548:	8d 04 42             	lea    (%rdx,%rax,2),%eax
  40154b:	89 44 24 04          	mov    %eax,0x4(%rsp)
  40154f:	8b 44 24 20          	mov    0x20(%rsp),%eax
  401553:	69 c0 0b d9 00 00    	imul   $0xd90b,%eax,%eax
  401559:	89 44 24 20          	mov    %eax,0x20(%rsp)
  40155d:	8b 44 24 08          	mov    0x8(%rsp),%eax
  401561:	69 c0 ef 21 00 00    	imul   $0x21ef,%eax,%eax
  401567:	89 44 24 08          	mov    %eax,0x8(%rsp)
  40156b:	8b 44 24 20          	mov    0x20(%rsp),%eax
  40156f:	69 c0 12 60 00 00    	imul   $0x6012,%eax,%eax
  401575:	89 44 24 20          	mov    %eax,0x20(%rsp)
  401579:	8b 04 24             	mov    (%rsp),%eax
  40157c:	69 c0 5c df 00 00    	imul   $0xdf5c,%eax,%eax
  401582:	89 04 24             	mov    %eax,(%rsp)
  401585:	8b 44 24 08          	mov    0x8(%rsp),%eax
  401589:	69 c0 13 f5 00 00    	imul   $0xf513,%eax,%eax
  40158f:	89 44 24 08          	mov    %eax,0x8(%rsp)
  401593:	8b 44 24 1c          	mov    0x1c(%rsp),%eax
  401597:	69 c0 b8 ab 00 00    	imul   $0xabb8,%eax,%eax
  40159d:	89 44 24 1c          	mov    %eax,0x1c(%rsp)
  4015a1:	8b 44 24 1c          	mov    0x1c(%rsp),%eax
  4015a5:	69 c0 47 68 00 00    	imul   $0x6847,%eax,%eax
  4015ab:	89 44 24 1c          	mov    %eax,0x1c(%rsp)
  4015af:	8b 44 24 1c          	mov    0x1c(%rsp),%eax
  4015b3:	69 c0 19 09 00 00    	imul   $0x919,%eax,%eax
  4015b9:	89 44 24 1c          	mov    %eax,0x1c(%rsp)
  4015bd:	8b 44 24 0c          	mov    0xc(%rsp),%eax
  4015c1:	69 c0 9c 9c 00 00    	imul   $0x9c9c,%eax,%eax
  4015c7:	89 44 24 0c          	mov    %eax,0xc(%rsp)
  4015cb:	8b 04 24             	mov    (%rsp),%eax
  4015ce:	69 c0 45 c9 00 00    	imul   $0xc945,%eax,%eax
  4015d4:	89 04 24             	mov    %eax,(%rsp)
  4015d7:	8b 44 24 18          	mov    0x18(%rsp),%eax
  4015db:	69 c0 88 ab 00 00    	imul   $0xab88,%eax,%eax
  4015e1:	89 44 24 18          	mov    %eax,0x18(%rsp)
  4015e5:	8b 44 24 24          	mov    0x24(%rsp),%eax
  4015e9:	69 c0 63 a9 00 00    	imul   $0xa963,%eax,%eax
  4015ef:	89 44 24 24          	mov    %eax,0x24(%rsp)
  4015f3:	8b 44 24 18          	mov    0x18(%rsp),%eax
  4015f7:	69 c0 35 ea 00 00    	imul   $0xea35,%eax,%eax
  4015fd:	89 44 24 18          	mov    %eax,0x18(%rsp)
  401601:	8b 44 24 0c          	mov    0xc(%rsp),%eax
  401605:	69 c0 6a 20 00 00    	imul   $0x206a,%eax,%eax
  40160b:	89 44 24 0c          	mov    %eax,0xc(%rsp)
  40160f:	8b 44 24 18          	mov    0x18(%rsp),%eax
  401613:	69 c0 9b 61 00 00    	imul   $0x619b,%eax,%eax
  401619:	89 44 24 18          	mov    %eax,0x18(%rsp)
  40161d:	8b 44 24 08          	mov    0x8(%rsp),%eax
  401621:	69 c0 34 bb 00 00    	imul   $0xbb34,%eax,%eax
  401627:	89 44 24 08          	mov    %eax,0x8(%rsp)
  40162b:	8b 44 24 04          	mov    0x4(%rsp),%eax
  40162f:	69 c0 0a 85 00 00    	imul   $0x850a,%eax,%eax
  401635:	89 44 24 04          	mov    %eax,0x4(%rsp)
  401639:	8b 44 24 18          	mov    0x18(%rsp),%eax
  40163d:	69 c0 62 c4 00 00    	imul   $0xc462,%eax,%eax
  401643:	89 44 24 18          	mov    %eax,0x18(%rsp)
  401647:	8b 44 24 14          	mov    0x14(%rsp),%eax
  40164b:	69 c0 6b 33 00 00    	imul   $0x336b,%eax,%eax
  401651:	89 44 24 14          	mov    %eax,0x14(%rsp)
  401655:	8b 04 24             	mov    (%rsp),%eax
  401658:	69 c0 84 07 00 00    	imul   $0x784,%eax,%eax
  40165e:	89 04 24             	mov    %eax,(%rsp)
  401661:	8b 44 24 08          	mov    0x8(%rsp),%eax
  401665:	69 c0 fd ea 00 00    	imul   $0xeafd,%eax,%eax
  40166b:	89 44 24 08          	mov    %eax,0x8(%rsp)
  40166f:	8b 44 24 10          	mov    0x10(%rsp),%eax
  401673:	69 c0 d3 a0 00 00    	imul   $0xa0d3,%eax,%eax
  401679:	89 44 24 10          	mov    %eax,0x10(%rsp)
  40167d:	8b 44 24 24          	mov    0x24(%rsp),%eax
  401681:	69 c0 40 7f 00 00    	imul   $0x7f40,%eax,%eax
  401687:	89 44 24 24          	mov    %eax,0x24(%rsp)
  40168b:	8b 44 24 08          	mov    0x8(%rsp),%eax
  40168f:	69 c0 7d f6 00 00    	imul   $0xf67d,%eax,%eax
  401695:	89 44 24 08          	mov    %eax,0x8(%rsp)
  401699:	8b 04 24             	mov    (%rsp),%eax
  40169c:	69 c0 80 e5 00 00    	imul   $0xe580,%eax,%eax
  4016a2:	89 04 24             	mov    %eax,(%rsp)
  4016a5:	8b 44 24 20          	mov    0x20(%rsp),%eax
  4016a9:	69 c0 dd b6 00 00    	imul   $0xb6dd,%eax,%eax
  4016af:	89 44 24 20          	mov    %eax,0x20(%rsp)
  4016b3:	8b 44 24 20          	mov    0x20(%rsp),%eax
  4016b7:	69 c0 d8 99 00 00    	imul   $0x99d8,%eax,%eax
  4016bd:	89 44 24 20          	mov    %eax,0x20(%rsp)
  4016c1:	8b 44 24 04          	mov    0x4(%rsp),%eax
  4016c5:	69 c0 a7 2f 00 00    	imul   $0x2fa7,%eax,%eax
  4016cb:	89 44 24 04          	mov    %eax,0x4(%rsp)
  4016cf:	8b 44 24 1c          	mov    0x1c(%rsp),%eax
  4016d3:	69 c0 93 0e 00 00    	imul   $0xe93,%eax,%eax
  4016d9:	89 44 24 1c          	mov    %eax,0x1c(%rsp)
  4016dd:	8b 04 24             	mov    (%rsp),%eax
  4016e0:	69 c0 5e 43 00 00    	imul   $0x435e,%eax,%eax
  4016e6:	89 04 24             	mov    %eax,(%rsp)
  4016e9:	8b 44 24 08          	mov    0x8(%rsp),%eax
  4016ed:	69 c0 7e b0 00 00    	imul   $0xb07e,%eax,%eax
  4016f3:	89 44 24 08          	mov    %eax,0x8(%rsp)
  4016f7:	8b 04 24             	mov    (%rsp),%eax
  4016fa:	69 c0 d4 aa 00 00    	imul   $0xaad4,%eax,%eax
  401700:	89 04 24             	mov    %eax,(%rsp)
  401703:	8b 44 24 1c          	mov    0x1c(%rsp),%eax
  401707:	69 c0 b5 db 00 00    	imul   $0xdbb5,%eax,%eax
  40170d:	89 44 24 1c          	mov    %eax,0x1c(%rsp)
  401711:	8b 44 24 10          	mov    0x10(%rsp),%eax
  401715:	69 c0 a5 1a 00 00    	imul   $0x1aa5,%eax,%eax
  40171b:	89 44 24 10          	mov    %eax,0x10(%rsp)
  40171f:	8b 44 24 1c          	mov    0x1c(%rsp),%eax
  401723:	69 c0 f6 12 00 00    	imul   $0x12f6,%eax,%eax
  401729:	89 44 24 1c          	mov    %eax,0x1c(%rsp)
  40172d:	8b 44 24 0c          	mov    0xc(%rsp),%eax
  401731:	69 c0 9f 37 00 00    	imul   $0x379f,%eax,%eax
  401737:	89 44 24 0c          	mov    %eax,0xc(%rsp)
  40173b:	8b 44 24 18          	mov    0x18(%rsp),%eax
  40173f:	69 c0 66 d5 00 00    	imul   $0xd566,%eax,%eax
  401745:	89 44 24 18          	mov    %eax,0x18(%rsp)
  401749:	8b 44 24 18          	mov    0x18(%rsp),%eax
  40174d:	69 c0 37 51 00 00    	imul   $0x5137,%eax,%eax
  401753:	89 44 24 18          	mov    %eax,0x18(%rsp)
  401757:	8b 04 24             	mov    (%rsp),%eax
  40175a:	69 c0 5f 82 00 00    	imul   $0x825f,%eax,%eax
  401760:	89 04 24             	mov    %eax,(%rsp)
  401763:	8b 44 24 1c          	mov    0x1c(%rsp),%eax
  401767:	69 c0 82 70 00 00    	imul   $0x7082,%eax,%eax
  40176d:	89 44 24 1c          	mov    %eax,0x1c(%rsp)
  401771:	8b 44 24 14          	mov    0x14(%rsp),%eax
  401775:	69 c0 77 07 00 00    	imul   $0x777,%eax,%eax
  40177b:	89 44 24 14          	mov    %eax,0x14(%rsp)
  40177f:	8b 44 24 04          	mov    0x4(%rsp),%eax
  401783:	69 c0 e8 f8 00 00    	imul   $0xf8e8,%eax,%eax
  401789:	89 44 24 04          	mov    %eax,0x4(%rsp)
  40178d:	8b 44 24 14          	mov    0x14(%rsp),%eax
  401791:	69 c0 a0 87 00 00    	imul   $0x87a0,%eax,%eax
  401797:	89 44 24 14          	mov    %eax,0x14(%rsp)
  40179b:	8b 44 24 04          	mov    0x4(%rsp),%eax
  40179f:	69 c0 5d 25 00 00    	imul   $0x255d,%eax,%eax
  4017a5:	89 44 24 04          	mov    %eax,0x4(%rsp)
  4017a9:	8b 44 24 24          	mov    0x24(%rsp),%eax
  4017ad:	69 c0 a1 78 00 00    	imul   $0x78a1,%eax,%eax
  4017b3:	89 44 24 24          	mov    %eax,0x24(%rsp)
  4017b7:	8b 44 24 24          	mov    0x24(%rsp),%eax
  4017bb:	69 c0 61 06 00 00    	imul   $0x661,%eax,%eax
  4017c1:	89 44 24 24          	mov    %eax,0x24(%rsp)
  4017c5:	8b 44 24 1c          	mov    0x1c(%rsp),%eax
  4017c9:	69 c0 4e 67 00 00    	imul   $0x674e,%eax,%eax
  4017cf:	89 44 24 1c          	mov    %eax,0x1c(%rsp)
  4017d3:	8b 44 24 1c          	mov    0x1c(%rsp),%eax
  4017d7:	69 c0 a7 5e 00 00    	imul   $0x5ea7,%eax,%eax
  4017dd:	89 44 24 1c          	mov    %eax,0x1c(%rsp)
  4017e1:	8b 04 24             	mov    (%rsp),%eax
  4017e4:	69 c0 6c 20 00 00    	imul   $0x206c,%eax,%eax
  4017ea:	89 04 24             	mov    %eax,(%rsp)
  4017ed:	8b 04 24             	mov    (%rsp),%eax
  4017f0:	69 c0 24 52 00 00    	imul   $0x5224,%eax,%eax
  4017f6:	89 04 24             	mov    %eax,(%rsp)
  4017f9:	8b 44 24 04          	mov    0x4(%rsp),%eax
  4017fd:	69 c0 76 9b 00 00    	imul   $0x9b76,%eax,%eax
  401803:	89 44 24 04          	mov    %eax,0x4(%rsp)
  401807:	ba 00 00 00 00       	mov    $0x0,%edx
  40180c:	b8 00 00 00 00       	mov    $0x0,%eax
  401811:	eb 0a                	jmp    40181d <scramble+0x48e>
  401813:	89 d1                	mov    %edx,%ecx
  401815:	8b 0c 8c             	mov    (%rsp,%rcx,4),%ecx
  401818:	01 c8                	add    %ecx,%eax
  40181a:	83 c2 01             	add    $0x1,%edx
  40181d:	83 fa 09             	cmp    $0x9,%edx
  401820:	76 f1                	jbe    401813 <scramble+0x484>
  401822:	48 8b 74 24 28       	mov    0x28(%rsp),%rsi
  401827:	64 48 33 34 25 28 00 	xor    %fs:0x28,%rsi
  40182e:	00 00 
  401830:	74 05                	je     401837 <scramble+0x4a8>
  401832:	e8 b9 f4 ff ff       	callq  400cf0 <__stack_chk_fail@plt>
  401837:	48 83 c4 38          	add    $0x38,%rsp
  40183b:	c3                   	retq   

000000000040183c <getbuf>:
  40183c:	48 83 ec 18          	sub    $0x18,%rsp
  401840:	48 89 e7             	mov    %rsp,%rdi
  401843:	e8 7e 02 00 00       	callq  401ac6 <Gets>
  401848:	b8 01 00 00 00       	mov    $0x1,%eax
  40184d:	48 83 c4 18          	add    $0x18,%rsp
  401851:	c3                   	retq   

0000000000401852 <touch1>:
  401852:	48 83 ec 08          	sub    $0x8,%rsp
  401856:	c7 05 bc 3c 20 00 01 	movl   $0x1,0x203cbc(%rip)        # 60551c <vlevel>
  40185d:	00 00 00 
  401860:	bf b2 32 40 00       	mov    $0x4032b2,%edi
  401865:	e8 66 f4 ff ff       	callq  400cd0 <puts@plt>
  40186a:	bf 01 00 00 00       	mov    $0x1,%edi
  40186f:	e8 97 04 00 00       	callq  401d0b <validate>
  401874:	bf 00 00 00 00       	mov    $0x0,%edi
  401879:	e8 d2 f5 ff ff       	callq  400e50 <exit@plt>

000000000040187e <touch2>:
  40187e:	48 83 ec 08          	sub    $0x8,%rsp
  401882:	89 fa                	mov    %edi,%edx
  401884:	c7 05 8e 3c 20 00 02 	movl   $0x2,0x203c8e(%rip)        # 60551c <vlevel>
  40188b:	00 00 00 
  40188e:	39 3d 90 3c 20 00    	cmp    %edi,0x203c90(%rip)        # 605524 <cookie>
  401894:	75 20                	jne    4018b6 <touch2+0x38>
  401896:	be d8 32 40 00       	mov    $0x4032d8,%esi
  40189b:	bf 01 00 00 00       	mov    $0x1,%edi
  4018a0:	b8 00 00 00 00       	mov    $0x0,%eax
  4018a5:	e8 56 f5 ff ff       	callq  400e00 <__printf_chk@plt>
  4018aa:	bf 02 00 00 00       	mov    $0x2,%edi
  4018af:	e8 57 04 00 00       	callq  401d0b <validate>
  4018b4:	eb 1e                	jmp    4018d4 <touch2+0x56>
  4018b6:	be 00 33 40 00       	mov    $0x403300,%esi
  4018bb:	bf 01 00 00 00       	mov    $0x1,%edi
  4018c0:	b8 00 00 00 00       	mov    $0x0,%eax
  4018c5:	e8 36 f5 ff ff       	callq  400e00 <__printf_chk@plt>
  4018ca:	bf 02 00 00 00       	mov    $0x2,%edi
  4018cf:	e8 f9 04 00 00       	callq  401dcd <fail>
  4018d4:	bf 00 00 00 00       	mov    $0x0,%edi
  4018d9:	e8 72 f5 ff ff       	callq  400e50 <exit@plt>

00000000004018de <hexmatch>:
  4018de:	41 54                	push   %r12
  4018e0:	55                   	push   %rbp
  4018e1:	53                   	push   %rbx
  4018e2:	48 83 c4 80          	add    $0xffffffffffffff80,%rsp
  4018e6:	89 fd                	mov    %edi,%ebp
  4018e8:	48 89 f3             	mov    %rsi,%rbx
  4018eb:	64 48 8b 04 25 28 00 	mov    %fs:0x28,%rax
  4018f2:	00 00 
  4018f4:	48 89 44 24 78       	mov    %rax,0x78(%rsp)
  4018f9:	31 c0                	xor    %eax,%eax
  4018fb:	e8 c0 f4 ff ff       	callq  400dc0 <random@plt>
  401900:	48 89 c1             	mov    %rax,%rcx
  401903:	48 ba 0b d7 a3 70 3d 	movabs $0xa3d70a3d70a3d70b,%rdx
  40190a:	0a d7 a3 
  40190d:	48 f7 ea             	imul   %rdx
  401910:	48 01 ca             	add    %rcx,%rdx
  401913:	48 c1 fa 06          	sar    $0x6,%rdx
  401917:	48 89 c8             	mov    %rcx,%rax
  40191a:	48 c1 f8 3f          	sar    $0x3f,%rax
  40191e:	48 29 c2             	sub    %rax,%rdx
  401921:	48 8d 04 92          	lea    (%rdx,%rdx,4),%rax
  401925:	48 8d 14 80          	lea    (%rax,%rax,4),%rdx
  401929:	48 8d 04 95 00 00 00 	lea    0x0(,%rdx,4),%rax
  401930:	00 
  401931:	48 29 c1             	sub    %rax,%rcx
  401934:	4c 8d 24 0c          	lea    (%rsp,%rcx,1),%r12
  401938:	41 89 e8             	mov    %ebp,%r8d
  40193b:	b9 cf 32 40 00       	mov    $0x4032cf,%ecx
  401940:	48 c7 c2 ff ff ff ff 	mov    $0xffffffffffffffff,%rdx
  401947:	be 01 00 00 00       	mov    $0x1,%esi
  40194c:	4c 89 e7             	mov    %r12,%rdi
  40194f:	b8 00 00 00 00       	mov    $0x0,%eax
  401954:	e8 27 f5 ff ff       	callq  400e80 <__sprintf_chk@plt>
  401959:	ba 09 00 00 00       	mov    $0x9,%edx
  40195e:	4c 89 e6             	mov    %r12,%rsi
  401961:	48 89 df             	mov    %rbx,%rdi
  401964:	e8 47 f3 ff ff       	callq  400cb0 <strncmp@plt>
  401969:	85 c0                	test   %eax,%eax
  40196b:	0f 94 c0             	sete   %al
  40196e:	48 8b 5c 24 78       	mov    0x78(%rsp),%rbx
  401973:	64 48 33 1c 25 28 00 	xor    %fs:0x28,%rbx
  40197a:	00 00 
  40197c:	74 05                	je     401983 <hexmatch+0xa5>
  40197e:	e8 6d f3 ff ff       	callq  400cf0 <__stack_chk_fail@plt>
  401983:	0f b6 c0             	movzbl %al,%eax
  401986:	48 83 ec 80          	sub    $0xffffffffffffff80,%rsp
  40198a:	5b                   	pop    %rbx
  40198b:	5d                   	pop    %rbp
  40198c:	41 5c                	pop    %r12
  40198e:	c3                   	retq   

000000000040198f <touch3>:
  40198f:	53                   	push   %rbx
  401990:	48 89 fb             	mov    %rdi,%rbx
  401993:	c7 05 7f 3b 20 00 03 	movl   $0x3,0x203b7f(%rip)        # 60551c <vlevel>
  40199a:	00 00 00 
  40199d:	48 89 fe             	mov    %rdi,%rsi
  4019a0:	8b 3d 7e 3b 20 00    	mov    0x203b7e(%rip),%edi        # 605524 <cookie>
  4019a6:	e8 33 ff ff ff       	callq  4018de <hexmatch>
  4019ab:	85 c0                	test   %eax,%eax
  4019ad:	74 23                	je     4019d2 <touch3+0x43>
  4019af:	48 89 da             	mov    %rbx,%rdx
  4019b2:	be 28 33 40 00       	mov    $0x403328,%esi
  4019b7:	bf 01 00 00 00       	mov    $0x1,%edi
  4019bc:	b8 00 00 00 00       	mov    $0x0,%eax
  4019c1:	e8 3a f4 ff ff       	callq  400e00 <__printf_chk@plt>
  4019c6:	bf 03 00 00 00       	mov    $0x3,%edi
  4019cb:	e8 3b 03 00 00       	callq  401d0b <validate>
  4019d0:	eb 21                	jmp    4019f3 <touch3+0x64>
  4019d2:	48 89 da             	mov    %rbx,%rdx
  4019d5:	be 50 33 40 00       	mov    $0x403350,%esi
  4019da:	bf 01 00 00 00       	mov    $0x1,%edi
  4019df:	b8 00 00 00 00       	mov    $0x0,%eax
  4019e4:	e8 17 f4 ff ff       	callq  400e00 <__printf_chk@plt>
  4019e9:	bf 03 00 00 00       	mov    $0x3,%edi
  4019ee:	e8 da 03 00 00       	callq  401dcd <fail>
  4019f3:	bf 00 00 00 00       	mov    $0x0,%edi
  4019f8:	e8 53 f4 ff ff       	callq  400e50 <exit@plt>

00000000004019fd <test>:
  4019fd:	48 83 ec 08          	sub    $0x8,%rsp
  401a01:	b8 00 00 00 00       	mov    $0x0,%eax
  401a06:	e8 31 fe ff ff       	callq  40183c <getbuf>
  401a0b:	89 c2                	mov    %eax,%edx
  401a0d:	be 78 33 40 00       	mov    $0x403378,%esi
  401a12:	bf 01 00 00 00       	mov    $0x1,%edi
  401a17:	b8 00 00 00 00       	mov    $0x0,%eax
  401a1c:	e8 df f3 ff ff       	callq  400e00 <__printf_chk@plt>
  401a21:	48 83 c4 08          	add    $0x8,%rsp
  401a25:	c3                   	retq   

0000000000401a26 <save_char>:
  401a26:	8b 05 18 47 20 00    	mov    0x204718(%rip),%eax        # 606144 <gets_cnt>
  401a2c:	3d ff 03 00 00       	cmp    $0x3ff,%eax
  401a31:	7f 49                	jg     401a7c <save_char+0x56>
  401a33:	8d 14 40             	lea    (%rax,%rax,2),%edx
  401a36:	89 f9                	mov    %edi,%ecx
  401a38:	c0 e9 04             	shr    $0x4,%cl
  401a3b:	83 e1 0f             	and    $0xf,%ecx
  401a3e:	0f b6 b1 a0 36 40 00 	movzbl 0x4036a0(%rcx),%esi
  401a45:	48 63 ca             	movslq %edx,%rcx
  401a48:	40 88 b1 40 55 60 00 	mov    %sil,0x605540(%rcx)
  401a4f:	8d 4a 01             	lea    0x1(%rdx),%ecx
  401a52:	83 e7 0f             	and    $0xf,%edi
  401a55:	0f b6 b7 a0 36 40 00 	movzbl 0x4036a0(%rdi),%esi
  401a5c:	48 63 c9             	movslq %ecx,%rcx
  401a5f:	40 88 b1 40 55 60 00 	mov    %sil,0x605540(%rcx)
  401a66:	83 c2 02             	add    $0x2,%edx
  401a69:	48 63 d2             	movslq %edx,%rdx
  401a6c:	c6 82 40 55 60 00 20 	movb   $0x20,0x605540(%rdx)
  401a73:	83 c0 01             	add    $0x1,%eax
  401a76:	89 05 c8 46 20 00    	mov    %eax,0x2046c8(%rip)        # 606144 <gets_cnt>
  401a7c:	f3 c3                	repz retq 

0000000000401a7e <save_term>:
  401a7e:	8b 05 c0 46 20 00    	mov    0x2046c0(%rip),%eax        # 606144 <gets_cnt>
  401a84:	8d 04 40             	lea    (%rax,%rax,2),%eax
  401a87:	48 98                	cltq   
  401a89:	c6 80 40 55 60 00 00 	movb   $0x0,0x605540(%rax)
  401a90:	c3                   	retq   

0000000000401a91 <check_fail>:
  401a91:	48 83 ec 08          	sub    $0x8,%rsp
  401a95:	0f be 15 ac 46 20 00 	movsbl 0x2046ac(%rip),%edx        # 606148 <target_prefix>
  401a9c:	41 b8 40 55 60 00    	mov    $0x605540,%r8d
  401aa2:	8b 0d 70 3a 20 00    	mov    0x203a70(%rip),%ecx        # 605518 <check_level>
  401aa8:	be 9b 33 40 00       	mov    $0x40339b,%esi
  401aad:	bf 01 00 00 00       	mov    $0x1,%edi
  401ab2:	b8 00 00 00 00       	mov    $0x0,%eax
  401ab7:	e8 44 f3 ff ff       	callq  400e00 <__printf_chk@plt>
  401abc:	bf 01 00 00 00       	mov    $0x1,%edi
  401ac1:	e8 8a f3 ff ff       	callq  400e50 <exit@plt>

0000000000401ac6 <Gets>:
  401ac6:	41 54                	push   %r12
  401ac8:	55                   	push   %rbp
  401ac9:	53                   	push   %rbx
  401aca:	49 89 fc             	mov    %rdi,%r12
  401acd:	c7 05 6d 46 20 00 00 	movl   $0x0,0x20466d(%rip)        # 606144 <gets_cnt>
  401ad4:	00 00 00 
  401ad7:	48 89 fb             	mov    %rdi,%rbx
  401ada:	eb 11                	jmp    401aed <Gets+0x27>
  401adc:	48 8d 6b 01          	lea    0x1(%rbx),%rbp
  401ae0:	88 03                	mov    %al,(%rbx)
  401ae2:	0f b6 f8             	movzbl %al,%edi
  401ae5:	e8 3c ff ff ff       	callq  401a26 <save_char>
  401aea:	48 89 eb             	mov    %rbp,%rbx
  401aed:	48 8b 3d 1c 3a 20 00 	mov    0x203a1c(%rip),%rdi        # 605510 <infile>
  401af4:	e8 d7 f2 ff ff       	callq  400dd0 <_IO_getc@plt>
  401af9:	83 f8 ff             	cmp    $0xffffffff,%eax
  401afc:	74 05                	je     401b03 <Gets+0x3d>
  401afe:	83 f8 0a             	cmp    $0xa,%eax
  401b01:	75 d9                	jne    401adc <Gets+0x16>
  401b03:	c6 03 00             	movb   $0x0,(%rbx)
  401b06:	b8 00 00 00 00       	mov    $0x0,%eax
  401b0b:	e8 6e ff ff ff       	callq  401a7e <save_term>
  401b10:	4c 89 e0             	mov    %r12,%rax
  401b13:	5b                   	pop    %rbx
  401b14:	5d                   	pop    %rbp
  401b15:	41 5c                	pop    %r12
  401b17:	c3                   	retq   

0000000000401b18 <notify_server>:
  401b18:	53                   	push   %rbx
  401b19:	48 81 ec 10 40 00 00 	sub    $0x4010,%rsp
  401b20:	64 48 8b 04 25 28 00 	mov    %fs:0x28,%rax
  401b27:	00 00 
  401b29:	48 89 84 24 08 40 00 	mov    %rax,0x4008(%rsp)
  401b30:	00 
  401b31:	31 c0                	xor    %eax,%eax
  401b33:	83 3d ee 39 20 00 00 	cmpl   $0x0,0x2039ee(%rip)        # 605528 <is_checker>
  401b3a:	0f 85 aa 01 00 00    	jne    401cea <notify_server+0x1d2>
  401b40:	89 fb                	mov    %edi,%ebx
  401b42:	8b 05 fc 45 20 00    	mov    0x2045fc(%rip),%eax        # 606144 <gets_cnt>
  401b48:	83 c0 64             	add    $0x64,%eax
  401b4b:	3d 00 20 00 00       	cmp    $0x2000,%eax
  401b50:	7e 1e                	jle    401b70 <notify_server+0x58>
  401b52:	be d0 34 40 00       	mov    $0x4034d0,%esi
  401b57:	bf 01 00 00 00       	mov    $0x1,%edi
  401b5c:	b8 00 00 00 00       	mov    $0x0,%eax
  401b61:	e8 9a f2 ff ff       	callq  400e00 <__printf_chk@plt>
  401b66:	bf 01 00 00 00       	mov    $0x1,%edi
  401b6b:	e8 e0 f2 ff ff       	callq  400e50 <exit@plt>
  401b70:	0f be 05 d1 45 20 00 	movsbl 0x2045d1(%rip),%eax        # 606148 <target_prefix>
  401b77:	83 3d 2a 39 20 00 00 	cmpl   $0x0,0x20392a(%rip)        # 6054a8 <notify>
  401b7e:	74 08                	je     401b88 <notify_server+0x70>
  401b80:	8b 15 9a 39 20 00    	mov    0x20399a(%rip),%edx        # 605520 <authkey>
  401b86:	eb 05                	jmp    401b8d <notify_server+0x75>
  401b88:	ba ff ff ff ff       	mov    $0xffffffff,%edx
  401b8d:	85 db                	test   %ebx,%ebx
  401b8f:	74 08                	je     401b99 <notify_server+0x81>
  401b91:	41 b9 b1 33 40 00    	mov    $0x4033b1,%r9d
  401b97:	eb 06                	jmp    401b9f <notify_server+0x87>
  401b99:	41 b9 b6 33 40 00    	mov    $0x4033b6,%r9d
  401b9f:	68 40 55 60 00       	pushq  $0x605540
  401ba4:	56                   	push   %rsi
  401ba5:	50                   	push   %rax
  401ba6:	52                   	push   %rdx
  401ba7:	44 8b 05 ba 35 20 00 	mov    0x2035ba(%rip),%r8d        # 605168 <target_id>
  401bae:	b9 bb 33 40 00       	mov    $0x4033bb,%ecx
  401bb3:	ba 00 20 00 00       	mov    $0x2000,%edx
  401bb8:	be 01 00 00 00       	mov    $0x1,%esi
  401bbd:	48 8d 7c 24 20       	lea    0x20(%rsp),%rdi
  401bc2:	b8 00 00 00 00       	mov    $0x0,%eax
  401bc7:	e8 b4 f2 ff ff       	callq  400e80 <__sprintf_chk@plt>
  401bcc:	48 83 c4 20          	add    $0x20,%rsp
  401bd0:	83 3d d1 38 20 00 00 	cmpl   $0x0,0x2038d1(%rip)        # 6054a8 <notify>
  401bd7:	0f 84 81 00 00 00    	je     401c5e <notify_server+0x146>
  401bdd:	85 db                	test   %ebx,%ebx
  401bdf:	74 6e                	je     401c4f <notify_server+0x137>
  401be1:	4c 8d 8c 24 00 20 00 	lea    0x2000(%rsp),%r9
  401be8:	00 
  401be9:	41 b8 00 00 00 00    	mov    $0x0,%r8d
  401bef:	48 89 e1             	mov    %rsp,%rcx
  401bf2:	48 8b 15 77 35 20 00 	mov    0x203577(%rip),%rdx        # 605170 <lab>
  401bf9:	48 8b 35 78 35 20 00 	mov    0x203578(%rip),%rsi        # 605178 <course>
  401c00:	48 8b 3d 59 35 20 00 	mov    0x203559(%rip),%rdi        # 605160 <user_id>
  401c07:	e8 ef 10 00 00       	callq  402cfb <driver_post>
  401c0c:	85 c0                	test   %eax,%eax
  401c0e:	79 26                	jns    401c36 <notify_server+0x11e>
  401c10:	48 8d 94 24 00 20 00 	lea    0x2000(%rsp),%rdx
  401c17:	00 
  401c18:	be d7 33 40 00       	mov    $0x4033d7,%esi
  401c1d:	bf 01 00 00 00       	mov    $0x1,%edi
  401c22:	b8 00 00 00 00       	mov    $0x0,%eax
  401c27:	e8 d4 f1 ff ff       	callq  400e00 <__printf_chk@plt>
  401c2c:	bf 01 00 00 00       	mov    $0x1,%edi
  401c31:	e8 1a f2 ff ff       	callq  400e50 <exit@plt>
  401c36:	bf 00 35 40 00       	mov    $0x403500,%edi
  401c3b:	e8 90 f0 ff ff       	callq  400cd0 <puts@plt>
  401c40:	bf e3 33 40 00       	mov    $0x4033e3,%edi
  401c45:	e8 86 f0 ff ff       	callq  400cd0 <puts@plt>
  401c4a:	e9 9b 00 00 00       	jmpq   401cea <notify_server+0x1d2>
  401c4f:	bf ed 33 40 00       	mov    $0x4033ed,%edi
  401c54:	e8 77 f0 ff ff       	callq  400cd0 <puts@plt>
  401c59:	e9 8c 00 00 00       	jmpq   401cea <notify_server+0x1d2>
  401c5e:	85 db                	test   %ebx,%ebx
  401c60:	74 07                	je     401c69 <notify_server+0x151>
  401c62:	ba b1 33 40 00       	mov    $0x4033b1,%edx
  401c67:	eb 05                	jmp    401c6e <notify_server+0x156>
  401c69:	ba b6 33 40 00       	mov    $0x4033b6,%edx
  401c6e:	be 38 35 40 00       	mov    $0x403538,%esi
  401c73:	bf 01 00 00 00       	mov    $0x1,%edi
  401c78:	b8 00 00 00 00       	mov    $0x0,%eax
  401c7d:	e8 7e f1 ff ff       	callq  400e00 <__printf_chk@plt>
  401c82:	48 8b 15 d7 34 20 00 	mov    0x2034d7(%rip),%rdx        # 605160 <user_id>
  401c89:	be f4 33 40 00       	mov    $0x4033f4,%esi
  401c8e:	bf 01 00 00 00       	mov    $0x1,%edi
  401c93:	b8 00 00 00 00       	mov    $0x0,%eax
  401c98:	e8 63 f1 ff ff       	callq  400e00 <__printf_chk@plt>
  401c9d:	48 8b 15 d4 34 20 00 	mov    0x2034d4(%rip),%rdx        # 605178 <course>
  401ca4:	be 01 34 40 00       	mov    $0x403401,%esi
  401ca9:	bf 01 00 00 00       	mov    $0x1,%edi
  401cae:	b8 00 00 00 00       	mov    $0x0,%eax
  401cb3:	e8 48 f1 ff ff       	callq  400e00 <__printf_chk@plt>
  401cb8:	48 8b 15 b1 34 20 00 	mov    0x2034b1(%rip),%rdx        # 605170 <lab>
  401cbf:	be 0d 34 40 00       	mov    $0x40340d,%esi
  401cc4:	bf 01 00 00 00       	mov    $0x1,%edi
  401cc9:	b8 00 00 00 00       	mov    $0x0,%eax
  401cce:	e8 2d f1 ff ff       	callq  400e00 <__printf_chk@plt>
  401cd3:	48 89 e2             	mov    %rsp,%rdx
  401cd6:	be 16 34 40 00       	mov    $0x403416,%esi
  401cdb:	bf 01 00 00 00       	mov    $0x1,%edi
  401ce0:	b8 00 00 00 00       	mov    $0x0,%eax
  401ce5:	e8 16 f1 ff ff       	callq  400e00 <__printf_chk@plt>
  401cea:	48 8b 84 24 08 40 00 	mov    0x4008(%rsp),%rax
  401cf1:	00 
  401cf2:	64 48 33 04 25 28 00 	xor    %fs:0x28,%rax
  401cf9:	00 00 
  401cfb:	74 05                	je     401d02 <notify_server+0x1ea>
  401cfd:	e8 ee ef ff ff       	callq  400cf0 <__stack_chk_fail@plt>
  401d02:	48 81 c4 10 40 00 00 	add    $0x4010,%rsp
  401d09:	5b                   	pop    %rbx
  401d0a:	c3                   	retq   

0000000000401d0b <validate>:
  401d0b:	53                   	push   %rbx
  401d0c:	89 fb                	mov    %edi,%ebx
  401d0e:	83 3d 13 38 20 00 00 	cmpl   $0x0,0x203813(%rip)        # 605528 <is_checker>
  401d15:	74 6b                	je     401d82 <validate+0x77>
  401d17:	39 3d ff 37 20 00    	cmp    %edi,0x2037ff(%rip)        # 60551c <vlevel>
  401d1d:	74 14                	je     401d33 <validate+0x28>
  401d1f:	bf 22 34 40 00       	mov    $0x403422,%edi
  401d24:	e8 a7 ef ff ff       	callq  400cd0 <puts@plt>
  401d29:	b8 00 00 00 00       	mov    $0x0,%eax
  401d2e:	e8 5e fd ff ff       	callq  401a91 <check_fail>
  401d33:	8b 15 df 37 20 00    	mov    0x2037df(%rip),%edx        # 605518 <check_level>
  401d39:	39 d7                	cmp    %edx,%edi
  401d3b:	74 20                	je     401d5d <validate+0x52>
  401d3d:	89 f9                	mov    %edi,%ecx
  401d3f:	be 60 35 40 00       	mov    $0x403560,%esi
  401d44:	bf 01 00 00 00       	mov    $0x1,%edi
  401d49:	b8 00 00 00 00       	mov    $0x0,%eax
  401d4e:	e8 ad f0 ff ff       	callq  400e00 <__printf_chk@plt>
  401d53:	b8 00 00 00 00       	mov    $0x0,%eax
  401d58:	e8 34 fd ff ff       	callq  401a91 <check_fail>
  401d5d:	0f be 15 e4 43 20 00 	movsbl 0x2043e4(%rip),%edx        # 606148 <target_prefix>
  401d64:	41 b8 40 55 60 00    	mov    $0x605540,%r8d
  401d6a:	89 f9                	mov    %edi,%ecx
  401d6c:	be 40 34 40 00       	mov    $0x403440,%esi
  401d71:	bf 01 00 00 00       	mov    $0x1,%edi
  401d76:	b8 00 00 00 00       	mov    $0x0,%eax
  401d7b:	e8 80 f0 ff ff       	callq  400e00 <__printf_chk@plt>
  401d80:	eb 49                	jmp    401dcb <validate+0xc0>
  401d82:	3b 3d 94 37 20 00    	cmp    0x203794(%rip),%edi        # 60551c <vlevel>
  401d88:	74 18                	je     401da2 <validate+0x97>
  401d8a:	bf 22 34 40 00       	mov    $0x403422,%edi
  401d8f:	e8 3c ef ff ff       	callq  400cd0 <puts@plt>
  401d94:	89 de                	mov    %ebx,%esi
  401d96:	bf 00 00 00 00       	mov    $0x0,%edi
  401d9b:	e8 78 fd ff ff       	callq  401b18 <notify_server>
  401da0:	eb 29                	jmp    401dcb <validate+0xc0>
  401da2:	0f be 0d 9f 43 20 00 	movsbl 0x20439f(%rip),%ecx        # 606148 <target_prefix>
  401da9:	89 fa                	mov    %edi,%edx
  401dab:	be 88 35 40 00       	mov    $0x403588,%esi
  401db0:	bf 01 00 00 00       	mov    $0x1,%edi
  401db5:	b8 00 00 00 00       	mov    $0x0,%eax
  401dba:	e8 41 f0 ff ff       	callq  400e00 <__printf_chk@plt>
  401dbf:	89 de                	mov    %ebx,%esi
  401dc1:	bf 01 00 00 00       	mov    $0x1,%edi
  401dc6:	e8 4d fd ff ff       	callq  401b18 <notify_server>
  401dcb:	5b                   	pop    %rbx
  401dcc:	c3                   	retq   

0000000000401dcd <fail>:
  401dcd:	48 83 ec 08          	sub    $0x8,%rsp
  401dd1:	83 3d 50 37 20 00 00 	cmpl   $0x0,0x203750(%rip)        # 605528 <is_checker>
  401dd8:	74 0a                	je     401de4 <fail+0x17>
  401dda:	b8 00 00 00 00       	mov    $0x0,%eax
  401ddf:	e8 ad fc ff ff       	callq  401a91 <check_fail>
  401de4:	89 fe                	mov    %edi,%esi
  401de6:	bf 00 00 00 00       	mov    $0x0,%edi
  401deb:	e8 28 fd ff ff       	callq  401b18 <notify_server>
  401df0:	48 83 c4 08          	add    $0x8,%rsp
  401df4:	c3                   	retq   

0000000000401df5 <bushandler>:
  401df5:	48 83 ec 08          	sub    $0x8,%rsp
  401df9:	83 3d 28 37 20 00 00 	cmpl   $0x0,0x203728(%rip)        # 605528 <is_checker>
  401e00:	74 14                	je     401e16 <bushandler+0x21>
  401e02:	bf 55 34 40 00       	mov    $0x403455,%edi
  401e07:	e8 c4 ee ff ff       	callq  400cd0 <puts@plt>
  401e0c:	b8 00 00 00 00       	mov    $0x0,%eax
  401e11:	e8 7b fc ff ff       	callq  401a91 <check_fail>
  401e16:	bf c0 35 40 00       	mov    $0x4035c0,%edi
  401e1b:	e8 b0 ee ff ff       	callq  400cd0 <puts@plt>
  401e20:	bf 5f 34 40 00       	mov    $0x40345f,%edi
  401e25:	e8 a6 ee ff ff       	callq  400cd0 <puts@plt>
  401e2a:	be 00 00 00 00       	mov    $0x0,%esi
  401e2f:	bf 00 00 00 00       	mov    $0x0,%edi
  401e34:	e8 df fc ff ff       	callq  401b18 <notify_server>
  401e39:	bf 01 00 00 00       	mov    $0x1,%edi
  401e3e:	e8 0d f0 ff ff       	callq  400e50 <exit@plt>

0000000000401e43 <seghandler>:
  401e43:	48 83 ec 08          	sub    $0x8,%rsp
  401e47:	83 3d da 36 20 00 00 	cmpl   $0x0,0x2036da(%rip)        # 605528 <is_checker>
  401e4e:	74 14                	je     401e64 <seghandler+0x21>
  401e50:	bf 75 34 40 00       	mov    $0x403475,%edi
  401e55:	e8 76 ee ff ff       	callq  400cd0 <puts@plt>
  401e5a:	b8 00 00 00 00       	mov    $0x0,%eax
  401e5f:	e8 2d fc ff ff       	callq  401a91 <check_fail>
  401e64:	bf e0 35 40 00       	mov    $0x4035e0,%edi
  401e69:	e8 62 ee ff ff       	callq  400cd0 <puts@plt>
  401e6e:	bf 5f 34 40 00       	mov    $0x40345f,%edi
  401e73:	e8 58 ee ff ff       	callq  400cd0 <puts@plt>
  401e78:	be 00 00 00 00       	mov    $0x0,%esi
  401e7d:	bf 00 00 00 00       	mov    $0x0,%edi
  401e82:	e8 91 fc ff ff       	callq  401b18 <notify_server>
  401e87:	bf 01 00 00 00       	mov    $0x1,%edi
  401e8c:	e8 bf ef ff ff       	callq  400e50 <exit@plt>

0000000000401e91 <illegalhandler>:
  401e91:	48 83 ec 08          	sub    $0x8,%rsp
  401e95:	83 3d 8c 36 20 00 00 	cmpl   $0x0,0x20368c(%rip)        # 605528 <is_checker>
  401e9c:	74 14                	je     401eb2 <illegalhandler+0x21>
  401e9e:	bf 88 34 40 00       	mov    $0x403488,%edi
  401ea3:	e8 28 ee ff ff       	callq  400cd0 <puts@plt>
  401ea8:	b8 00 00 00 00       	mov    $0x0,%eax
  401ead:	e8 df fb ff ff       	callq  401a91 <check_fail>
  401eb2:	bf 08 36 40 00       	mov    $0x403608,%edi
  401eb7:	e8 14 ee ff ff       	callq  400cd0 <puts@plt>
  401ebc:	bf 5f 34 40 00       	mov    $0x40345f,%edi
  401ec1:	e8 0a ee ff ff       	callq  400cd0 <puts@plt>
  401ec6:	be 00 00 00 00       	mov    $0x0,%esi
  401ecb:	bf 00 00 00 00       	mov    $0x0,%edi
  401ed0:	e8 43 fc ff ff       	callq  401b18 <notify_server>
  401ed5:	bf 01 00 00 00       	mov    $0x1,%edi
  401eda:	e8 71 ef ff ff       	callq  400e50 <exit@plt>

0000000000401edf <sigalrmhandler>:
  401edf:	48 83 ec 08          	sub    $0x8,%rsp
  401ee3:	83 3d 3e 36 20 00 00 	cmpl   $0x0,0x20363e(%rip)        # 605528 <is_checker>
  401eea:	74 14                	je     401f00 <sigalrmhandler+0x21>
  401eec:	bf 9c 34 40 00       	mov    $0x40349c,%edi
  401ef1:	e8 da ed ff ff       	callq  400cd0 <puts@plt>
  401ef6:	b8 00 00 00 00       	mov    $0x0,%eax
  401efb:	e8 91 fb ff ff       	callq  401a91 <check_fail>
  401f00:	ba 05 00 00 00       	mov    $0x5,%edx
  401f05:	be 38 36 40 00       	mov    $0x403638,%esi
  401f0a:	bf 01 00 00 00       	mov    $0x1,%edi
  401f0f:	b8 00 00 00 00       	mov    $0x0,%eax
  401f14:	e8 e7 ee ff ff       	callq  400e00 <__printf_chk@plt>
  401f19:	be 00 00 00 00       	mov    $0x0,%esi
  401f1e:	bf 00 00 00 00       	mov    $0x0,%edi
  401f23:	e8 f0 fb ff ff       	callq  401b18 <notify_server>
  401f28:	bf 01 00 00 00       	mov    $0x1,%edi
  401f2d:	e8 1e ef ff ff       	callq  400e50 <exit@plt>

0000000000401f32 <launch>:
  401f32:	55                   	push   %rbp
  401f33:	48 89 e5             	mov    %rsp,%rbp
  401f36:	48 83 ec 10          	sub    $0x10,%rsp
  401f3a:	48 89 fa             	mov    %rdi,%rdx
  401f3d:	64 48 8b 04 25 28 00 	mov    %fs:0x28,%rax
  401f44:	00 00 
  401f46:	48 89 45 f8          	mov    %rax,-0x8(%rbp)
  401f4a:	31 c0                	xor    %eax,%eax
  401f4c:	48 8d 47 1e          	lea    0x1e(%rdi),%rax
  401f50:	48 83 e0 f0          	and    $0xfffffffffffffff0,%rax
  401f54:	48 29 c4             	sub    %rax,%rsp
  401f57:	48 8d 7c 24 0f       	lea    0xf(%rsp),%rdi
  401f5c:	48 83 e7 f0          	and    $0xfffffffffffffff0,%rdi
  401f60:	be f4 00 00 00       	mov    $0xf4,%esi
  401f65:	e8 a6 ed ff ff       	callq  400d10 <memset@plt>
  401f6a:	48 8b 05 4f 35 20 00 	mov    0x20354f(%rip),%rax        # 6054c0 <stdin@@GLIBC_2.2.5>
  401f71:	48 39 05 98 35 20 00 	cmp    %rax,0x203598(%rip)        # 605510 <infile>
  401f78:	75 14                	jne    401f8e <launch+0x5c>
  401f7a:	be a4 34 40 00       	mov    $0x4034a4,%esi
  401f7f:	bf 01 00 00 00       	mov    $0x1,%edi
  401f84:	b8 00 00 00 00       	mov    $0x0,%eax
  401f89:	e8 72 ee ff ff       	callq  400e00 <__printf_chk@plt>
  401f8e:	c7 05 84 35 20 00 00 	movl   $0x0,0x203584(%rip)        # 60551c <vlevel>
  401f95:	00 00 00 
  401f98:	b8 00 00 00 00       	mov    $0x0,%eax
  401f9d:	e8 5b fa ff ff       	callq  4019fd <test>
  401fa2:	83 3d 7f 35 20 00 00 	cmpl   $0x0,0x20357f(%rip)        # 605528 <is_checker>
  401fa9:	74 14                	je     401fbf <launch+0x8d>
  401fab:	bf b1 34 40 00       	mov    $0x4034b1,%edi
  401fb0:	e8 1b ed ff ff       	callq  400cd0 <puts@plt>
  401fb5:	b8 00 00 00 00       	mov    $0x0,%eax
  401fba:	e8 d2 fa ff ff       	callq  401a91 <check_fail>
  401fbf:	bf bc 34 40 00       	mov    $0x4034bc,%edi
  401fc4:	e8 07 ed ff ff       	callq  400cd0 <puts@plt>
  401fc9:	48 8b 45 f8          	mov    -0x8(%rbp),%rax
  401fcd:	64 48 33 04 25 28 00 	xor    %fs:0x28,%rax
  401fd4:	00 00 
  401fd6:	74 05                	je     401fdd <launch+0xab>
  401fd8:	e8 13 ed ff ff       	callq  400cf0 <__stack_chk_fail@plt>
  401fdd:	c9                   	leaveq 
  401fde:	c3                   	retq   

0000000000401fdf <stable_launch>:
  401fdf:	53                   	push   %rbx
  401fe0:	48 89 3d 21 35 20 00 	mov    %rdi,0x203521(%rip)        # 605508 <global_offset>
  401fe7:	41 b9 00 00 00 00    	mov    $0x0,%r9d
  401fed:	41 b8 00 00 00 00    	mov    $0x0,%r8d
  401ff3:	b9 32 01 00 00       	mov    $0x132,%ecx
  401ff8:	ba 07 00 00 00       	mov    $0x7,%edx
  401ffd:	be 00 00 10 00       	mov    $0x100000,%esi
  402002:	bf 00 60 58 55       	mov    $0x55586000,%edi
  402007:	e8 f4 ec ff ff       	callq  400d00 <mmap@plt>
  40200c:	48 89 c3             	mov    %rax,%rbx
  40200f:	48 3d 00 60 58 55    	cmp    $0x55586000,%rax
  402015:	74 37                	je     40204e <stable_launch+0x6f>
  402017:	be 00 00 10 00       	mov    $0x100000,%esi
  40201c:	48 89 c7             	mov    %rax,%rdi
  40201f:	e8 cc ed ff ff       	callq  400df0 <munmap@plt>
  402024:	b9 00 60 58 55       	mov    $0x55586000,%ecx
  402029:	ba 70 36 40 00       	mov    $0x403670,%edx
  40202e:	be 01 00 00 00       	mov    $0x1,%esi
  402033:	48 8b 3d a6 34 20 00 	mov    0x2034a6(%rip),%rdi        # 6054e0 <stderr@@GLIBC_2.2.5>
  40203a:	b8 00 00 00 00       	mov    $0x0,%eax
  40203f:	e8 2c ee ff ff       	callq  400e70 <__fprintf_chk@plt>
  402044:	bf 01 00 00 00       	mov    $0x1,%edi
  402049:	e8 02 ee ff ff       	callq  400e50 <exit@plt>
  40204e:	48 8d 90 f8 ff 0f 00 	lea    0xffff8(%rax),%rdx
  402055:	48 89 15 f4 40 20 00 	mov    %rdx,0x2040f4(%rip)        # 606150 <stack_top>
  40205c:	48 89 e0             	mov    %rsp,%rax
  40205f:	48 89 d4             	mov    %rdx,%rsp
  402062:	48 89 c2             	mov    %rax,%rdx
  402065:	48 89 15 94 34 20 00 	mov    %rdx,0x203494(%rip)        # 605500 <global_save_stack>
  40206c:	48 8b 3d 95 34 20 00 	mov    0x203495(%rip),%rdi        # 605508 <global_offset>
  402073:	e8 ba fe ff ff       	callq  401f32 <launch>
  402078:	48 8b 05 81 34 20 00 	mov    0x203481(%rip),%rax        # 605500 <global_save_stack>
  40207f:	48 89 c4             	mov    %rax,%rsp
  402082:	be 00 00 10 00       	mov    $0x100000,%esi
  402087:	48 89 df             	mov    %rbx,%rdi
  40208a:	e8 61 ed ff ff       	callq  400df0 <munmap@plt>
  40208f:	5b                   	pop    %rbx
  402090:	c3                   	retq   

0000000000402091 <rio_readinitb>:
  402091:	89 37                	mov    %esi,(%rdi)
  402093:	c7 47 04 00 00 00 00 	movl   $0x0,0x4(%rdi)
  40209a:	48 8d 47 10          	lea    0x10(%rdi),%rax
  40209e:	48 89 47 08          	mov    %rax,0x8(%rdi)
  4020a2:	c3                   	retq   

00000000004020a3 <sigalrm_handler>:
  4020a3:	48 83 ec 08          	sub    $0x8,%rsp
  4020a7:	b9 00 00 00 00       	mov    $0x0,%ecx
  4020ac:	ba b0 36 40 00       	mov    $0x4036b0,%edx
  4020b1:	be 01 00 00 00       	mov    $0x1,%esi
  4020b6:	48 8b 3d 23 34 20 00 	mov    0x203423(%rip),%rdi        # 6054e0 <stderr@@GLIBC_2.2.5>
  4020bd:	b8 00 00 00 00       	mov    $0x0,%eax
  4020c2:	e8 a9 ed ff ff       	callq  400e70 <__fprintf_chk@plt>
  4020c7:	bf 01 00 00 00       	mov    $0x1,%edi
  4020cc:	e8 7f ed ff ff       	callq  400e50 <exit@plt>

00000000004020d1 <rio_writen>:
  4020d1:	41 55                	push   %r13
  4020d3:	41 54                	push   %r12
  4020d5:	55                   	push   %rbp
  4020d6:	53                   	push   %rbx
  4020d7:	48 83 ec 08          	sub    $0x8,%rsp
  4020db:	41 89 fc             	mov    %edi,%r12d
  4020de:	48 89 f5             	mov    %rsi,%rbp
  4020e1:	49 89 d5             	mov    %rdx,%r13
  4020e4:	48 89 d3             	mov    %rdx,%rbx
  4020e7:	eb 28                	jmp    402111 <rio_writen+0x40>
  4020e9:	48 89 da             	mov    %rbx,%rdx
  4020ec:	48 89 ee             	mov    %rbp,%rsi
  4020ef:	44 89 e7             	mov    %r12d,%edi
  4020f2:	e8 e9 eb ff ff       	callq  400ce0 <write@plt>
  4020f7:	48 85 c0             	test   %rax,%rax
  4020fa:	7f 0f                	jg     40210b <rio_writen+0x3a>
  4020fc:	e8 8f eb ff ff       	callq  400c90 <__errno_location@plt>
  402101:	83 38 04             	cmpl   $0x4,(%rax)
  402104:	75 15                	jne    40211b <rio_writen+0x4a>
  402106:	b8 00 00 00 00       	mov    $0x0,%eax
  40210b:	48 29 c3             	sub    %rax,%rbx
  40210e:	48 01 c5             	add    %rax,%rbp
  402111:	48 85 db             	test   %rbx,%rbx
  402114:	75 d3                	jne    4020e9 <rio_writen+0x18>
  402116:	4c 89 e8             	mov    %r13,%rax
  402119:	eb 07                	jmp    402122 <rio_writen+0x51>
  40211b:	48 c7 c0 ff ff ff ff 	mov    $0xffffffffffffffff,%rax
  402122:	48 83 c4 08          	add    $0x8,%rsp
  402126:	5b                   	pop    %rbx
  402127:	5d                   	pop    %rbp
  402128:	41 5c                	pop    %r12
  40212a:	41 5d                	pop    %r13
  40212c:	c3                   	retq   

000000000040212d <rio_read>:
  40212d:	41 55                	push   %r13
  40212f:	41 54                	push   %r12
  402131:	55                   	push   %rbp
  402132:	53                   	push   %rbx
  402133:	48 83 ec 08          	sub    $0x8,%rsp
  402137:	48 89 fb             	mov    %rdi,%rbx
  40213a:	49 89 f5             	mov    %rsi,%r13
  40213d:	49 89 d4             	mov    %rdx,%r12
  402140:	eb 2e                	jmp    402170 <rio_read+0x43>
  402142:	48 8d 6b 10          	lea    0x10(%rbx),%rbp
  402146:	8b 3b                	mov    (%rbx),%edi
  402148:	ba 00 20 00 00       	mov    $0x2000,%edx
  40214d:	48 89 ee             	mov    %rbp,%rsi
  402150:	e8 eb eb ff ff       	callq  400d40 <read@plt>
  402155:	89 43 04             	mov    %eax,0x4(%rbx)
  402158:	85 c0                	test   %eax,%eax
  40215a:	79 0c                	jns    402168 <rio_read+0x3b>
  40215c:	e8 2f eb ff ff       	callq  400c90 <__errno_location@plt>
  402161:	83 38 04             	cmpl   $0x4,(%rax)
  402164:	74 0a                	je     402170 <rio_read+0x43>
  402166:	eb 37                	jmp    40219f <rio_read+0x72>
  402168:	85 c0                	test   %eax,%eax
  40216a:	74 3c                	je     4021a8 <rio_read+0x7b>
  40216c:	48 89 6b 08          	mov    %rbp,0x8(%rbx)
  402170:	8b 6b 04             	mov    0x4(%rbx),%ebp
  402173:	85 ed                	test   %ebp,%ebp
  402175:	7e cb                	jle    402142 <rio_read+0x15>
  402177:	89 e8                	mov    %ebp,%eax
  402179:	49 39 c4             	cmp    %rax,%r12
  40217c:	77 03                	ja     402181 <rio_read+0x54>
  40217e:	44 89 e5             	mov    %r12d,%ebp
  402181:	4c 63 e5             	movslq %ebp,%r12
  402184:	48 8b 73 08          	mov    0x8(%rbx),%rsi
  402188:	4c 89 e2             	mov    %r12,%rdx
  40218b:	4c 89 ef             	mov    %r13,%rdi
  40218e:	e8 0d ec ff ff       	callq  400da0 <memcpy@plt>
  402193:	4c 01 63 08          	add    %r12,0x8(%rbx)
  402197:	29 6b 04             	sub    %ebp,0x4(%rbx)
  40219a:	4c 89 e0             	mov    %r12,%rax
  40219d:	eb 0e                	jmp    4021ad <rio_read+0x80>
  40219f:	48 c7 c0 ff ff ff ff 	mov    $0xffffffffffffffff,%rax
  4021a6:	eb 05                	jmp    4021ad <rio_read+0x80>
  4021a8:	b8 00 00 00 00       	mov    $0x0,%eax
  4021ad:	48 83 c4 08          	add    $0x8,%rsp
  4021b1:	5b                   	pop    %rbx
  4021b2:	5d                   	pop    %rbp
  4021b3:	41 5c                	pop    %r12
  4021b5:	41 5d                	pop    %r13
  4021b7:	c3                   	retq   

00000000004021b8 <rio_readlineb>:
  4021b8:	41 55                	push   %r13
  4021ba:	41 54                	push   %r12
  4021bc:	55                   	push   %rbp
  4021bd:	53                   	push   %rbx
  4021be:	48 83 ec 18          	sub    $0x18,%rsp
  4021c2:	49 89 fd             	mov    %rdi,%r13
  4021c5:	48 89 f5             	mov    %rsi,%rbp
  4021c8:	49 89 d4             	mov    %rdx,%r12
  4021cb:	64 48 8b 04 25 28 00 	mov    %fs:0x28,%rax
  4021d2:	00 00 
  4021d4:	48 89 44 24 08       	mov    %rax,0x8(%rsp)
  4021d9:	31 c0                	xor    %eax,%eax
  4021db:	bb 01 00 00 00       	mov    $0x1,%ebx
  4021e0:	eb 3f                	jmp    402221 <rio_readlineb+0x69>
  4021e2:	ba 01 00 00 00       	mov    $0x1,%edx
  4021e7:	48 8d 74 24 07       	lea    0x7(%rsp),%rsi
  4021ec:	4c 89 ef             	mov    %r13,%rdi
  4021ef:	e8 39 ff ff ff       	callq  40212d <rio_read>
  4021f4:	83 f8 01             	cmp    $0x1,%eax
  4021f7:	75 15                	jne    40220e <rio_readlineb+0x56>
  4021f9:	48 8d 45 01          	lea    0x1(%rbp),%rax
  4021fd:	0f b6 54 24 07       	movzbl 0x7(%rsp),%edx
  402202:	88 55 00             	mov    %dl,0x0(%rbp)
  402205:	80 7c 24 07 0a       	cmpb   $0xa,0x7(%rsp)
  40220a:	75 0e                	jne    40221a <rio_readlineb+0x62>
  40220c:	eb 1a                	jmp    402228 <rio_readlineb+0x70>
  40220e:	85 c0                	test   %eax,%eax
  402210:	75 22                	jne    402234 <rio_readlineb+0x7c>
  402212:	48 83 fb 01          	cmp    $0x1,%rbx
  402216:	75 13                	jne    40222b <rio_readlineb+0x73>
  402218:	eb 23                	jmp    40223d <rio_readlineb+0x85>
  40221a:	48 83 c3 01          	add    $0x1,%rbx
  40221e:	48 89 c5             	mov    %rax,%rbp
  402221:	4c 39 e3             	cmp    %r12,%rbx
  402224:	72 bc                	jb     4021e2 <rio_readlineb+0x2a>
  402226:	eb 03                	jmp    40222b <rio_readlineb+0x73>
  402228:	48 89 c5             	mov    %rax,%rbp
  40222b:	c6 45 00 00          	movb   $0x0,0x0(%rbp)
  40222f:	48 89 d8             	mov    %rbx,%rax
  402232:	eb 0e                	jmp    402242 <rio_readlineb+0x8a>
  402234:	48 c7 c0 ff ff ff ff 	mov    $0xffffffffffffffff,%rax
  40223b:	eb 05                	jmp    402242 <rio_readlineb+0x8a>
  40223d:	b8 00 00 00 00       	mov    $0x0,%eax
  402242:	48 8b 4c 24 08       	mov    0x8(%rsp),%rcx
  402247:	64 48 33 0c 25 28 00 	xor    %fs:0x28,%rcx
  40224e:	00 00 
  402250:	74 05                	je     402257 <rio_readlineb+0x9f>
  402252:	e8 99 ea ff ff       	callq  400cf0 <__stack_chk_fail@plt>
  402257:	48 83 c4 18          	add    $0x18,%rsp
  40225b:	5b                   	pop    %rbx
  40225c:	5d                   	pop    %rbp
  40225d:	41 5c                	pop    %r12
  40225f:	41 5d                	pop    %r13
  402261:	c3                   	retq   

0000000000402262 <urlencode>:
  402262:	41 54                	push   %r12
  402264:	55                   	push   %rbp
  402265:	53                   	push   %rbx
  402266:	48 83 ec 10          	sub    $0x10,%rsp
  40226a:	48 89 fb             	mov    %rdi,%rbx
  40226d:	48 89 f5             	mov    %rsi,%rbp
  402270:	64 48 8b 04 25 28 00 	mov    %fs:0x28,%rax
  402277:	00 00 
  402279:	48 89 44 24 08       	mov    %rax,0x8(%rsp)
  40227e:	31 c0                	xor    %eax,%eax
  402280:	48 c7 c1 ff ff ff ff 	mov    $0xffffffffffffffff,%rcx
  402287:	f2 ae                	repnz scas %es:(%rdi),%al
  402289:	48 f7 d1             	not    %rcx
  40228c:	8d 41 ff             	lea    -0x1(%rcx),%eax
  40228f:	e9 aa 00 00 00       	jmpq   40233e <urlencode+0xdc>
  402294:	44 0f b6 03          	movzbl (%rbx),%r8d
  402298:	41 80 f8 2a          	cmp    $0x2a,%r8b
  40229c:	0f 94 c2             	sete   %dl
  40229f:	41 80 f8 2d          	cmp    $0x2d,%r8b
  4022a3:	0f 94 c0             	sete   %al
  4022a6:	08 c2                	or     %al,%dl
  4022a8:	75 24                	jne    4022ce <urlencode+0x6c>
  4022aa:	41 80 f8 2e          	cmp    $0x2e,%r8b
  4022ae:	74 1e                	je     4022ce <urlencode+0x6c>
  4022b0:	41 80 f8 5f          	cmp    $0x5f,%r8b
  4022b4:	74 18                	je     4022ce <urlencode+0x6c>
  4022b6:	41 8d 40 d0          	lea    -0x30(%r8),%eax
  4022ba:	3c 09                	cmp    $0x9,%al
  4022bc:	76 10                	jbe    4022ce <urlencode+0x6c>
  4022be:	41 8d 40 bf          	lea    -0x41(%r8),%eax
  4022c2:	3c 19                	cmp    $0x19,%al
  4022c4:	76 08                	jbe    4022ce <urlencode+0x6c>
  4022c6:	41 8d 40 9f          	lea    -0x61(%r8),%eax
  4022ca:	3c 19                	cmp    $0x19,%al
  4022cc:	77 0a                	ja     4022d8 <urlencode+0x76>
  4022ce:	44 88 45 00          	mov    %r8b,0x0(%rbp)
  4022d2:	48 8d 6d 01          	lea    0x1(%rbp),%rbp
  4022d6:	eb 5f                	jmp    402337 <urlencode+0xd5>
  4022d8:	41 80 f8 20          	cmp    $0x20,%r8b
  4022dc:	75 0a                	jne    4022e8 <urlencode+0x86>
  4022de:	c6 45 00 2b          	movb   $0x2b,0x0(%rbp)
  4022e2:	48 8d 6d 01          	lea    0x1(%rbp),%rbp
  4022e6:	eb 4f                	jmp    402337 <urlencode+0xd5>
  4022e8:	41 8d 40 e0          	lea    -0x20(%r8),%eax
  4022ec:	3c 5f                	cmp    $0x5f,%al
  4022ee:	0f 96 c2             	setbe  %dl
  4022f1:	41 80 f8 09          	cmp    $0x9,%r8b
  4022f5:	0f 94 c0             	sete   %al
  4022f8:	08 c2                	or     %al,%dl
  4022fa:	74 50                	je     40234c <urlencode+0xea>
  4022fc:	45 0f b6 c0          	movzbl %r8b,%r8d
  402300:	b9 48 37 40 00       	mov    $0x403748,%ecx
  402305:	ba 08 00 00 00       	mov    $0x8,%edx
  40230a:	be 01 00 00 00       	mov    $0x1,%esi
  40230f:	48 89 e7             	mov    %rsp,%rdi
  402312:	b8 00 00 00 00       	mov    $0x0,%eax
  402317:	e8 64 eb ff ff       	callq  400e80 <__sprintf_chk@plt>
  40231c:	0f b6 04 24          	movzbl (%rsp),%eax
  402320:	88 45 00             	mov    %al,0x0(%rbp)
  402323:	0f b6 44 24 01       	movzbl 0x1(%rsp),%eax
  402328:	88 45 01             	mov    %al,0x1(%rbp)
  40232b:	0f b6 44 24 02       	movzbl 0x2(%rsp),%eax
  402330:	88 45 02             	mov    %al,0x2(%rbp)
  402333:	48 8d 6d 03          	lea    0x3(%rbp),%rbp
  402337:	48 83 c3 01          	add    $0x1,%rbx
  40233b:	44 89 e0             	mov    %r12d,%eax
  40233e:	44 8d 60 ff          	lea    -0x1(%rax),%r12d
  402342:	85 c0                	test   %eax,%eax
  402344:	0f 85 4a ff ff ff    	jne    402294 <urlencode+0x32>
  40234a:	eb 05                	jmp    402351 <urlencode+0xef>
  40234c:	b8 ff ff ff ff       	mov    $0xffffffff,%eax
  402351:	48 8b 74 24 08       	mov    0x8(%rsp),%rsi
  402356:	64 48 33 34 25 28 00 	xor    %fs:0x28,%rsi
  40235d:	00 00 
  40235f:	74 05                	je     402366 <urlencode+0x104>
  402361:	e8 8a e9 ff ff       	callq  400cf0 <__stack_chk_fail@plt>
  402366:	48 83 c4 10          	add    $0x10,%rsp
  40236a:	5b                   	pop    %rbx
  40236b:	5d                   	pop    %rbp
  40236c:	41 5c                	pop    %r12
  40236e:	c3                   	retq   

000000000040236f <submitr>:
  40236f:	41 57                	push   %r15
  402371:	41 56                	push   %r14
  402373:	41 55                	push   %r13
  402375:	41 54                	push   %r12
  402377:	55                   	push   %rbp
  402378:	53                   	push   %rbx
  402379:	48 81 ec 58 a0 00 00 	sub    $0xa058,%rsp
  402380:	49 89 fc             	mov    %rdi,%r12
  402383:	89 74 24 04          	mov    %esi,0x4(%rsp)
  402387:	49 89 d7             	mov    %rdx,%r15
  40238a:	49 89 ce             	mov    %rcx,%r14
  40238d:	4c 89 44 24 08       	mov    %r8,0x8(%rsp)
  402392:	4d 89 cd             	mov    %r9,%r13
  402395:	48 8b 9c 24 90 a0 00 	mov    0xa090(%rsp),%rbx
  40239c:	00 
  40239d:	64 48 8b 04 25 28 00 	mov    %fs:0x28,%rax
  4023a4:	00 00 
  4023a6:	48 89 84 24 48 a0 00 	mov    %rax,0xa048(%rsp)
  4023ad:	00 
  4023ae:	31 c0                	xor    %eax,%eax
  4023b0:	c7 44 24 1c 00 00 00 	movl   $0x0,0x1c(%rsp)
  4023b7:	00 
  4023b8:	ba 00 00 00 00       	mov    $0x0,%edx
  4023bd:	be 01 00 00 00       	mov    $0x1,%esi
  4023c2:	bf 02 00 00 00       	mov    $0x2,%edi
  4023c7:	e8 c4 ea ff ff       	callq  400e90 <socket@plt>
  4023cc:	85 c0                	test   %eax,%eax
  4023ce:	79 4e                	jns    40241e <submitr+0xaf>
  4023d0:	48 b8 45 72 72 6f 72 	movabs $0x43203a726f727245,%rax
  4023d7:	3a 20 43 
  4023da:	48 89 03             	mov    %rax,(%rbx)
  4023dd:	48 b8 6c 69 65 6e 74 	movabs $0x6e7520746e65696c,%rax
  4023e4:	20 75 6e 
  4023e7:	48 89 43 08          	mov    %rax,0x8(%rbx)
  4023eb:	48 b8 61 62 6c 65 20 	movabs $0x206f7420656c6261,%rax
  4023f2:	74 6f 20 
  4023f5:	48 89 43 10          	mov    %rax,0x10(%rbx)
  4023f9:	48 b8 63 72 65 61 74 	movabs $0x7320657461657263,%rax
  402400:	65 20 73 
  402403:	48 89 43 18          	mov    %rax,0x18(%rbx)
  402407:	c7 43 20 6f 63 6b 65 	movl   $0x656b636f,0x20(%rbx)
  40240e:	66 c7 43 24 74 00    	movw   $0x74,0x24(%rbx)
  402414:	b8 ff ff ff ff       	mov    $0xffffffff,%eax
  402419:	e9 97 06 00 00       	jmpq   402ab5 <submitr+0x746>
  40241e:	89 c5                	mov    %eax,%ebp
  402420:	4c 89 e7             	mov    %r12,%rdi
  402423:	e8 48 e9 ff ff       	callq  400d70 <gethostbyname@plt>
  402428:	48 85 c0             	test   %rax,%rax
  40242b:	75 67                	jne    402494 <submitr+0x125>
  40242d:	48 b8 45 72 72 6f 72 	movabs $0x44203a726f727245,%rax
  402434:	3a 20 44 
  402437:	48 89 03             	mov    %rax,(%rbx)
  40243a:	48 b8 4e 53 20 69 73 	movabs $0x6e7520736920534e,%rax
  402441:	20 75 6e 
  402444:	48 89 43 08          	mov    %rax,0x8(%rbx)
  402448:	48 b8 61 62 6c 65 20 	movabs $0x206f7420656c6261,%rax
  40244f:	74 6f 20 
  402452:	48 89 43 10          	mov    %rax,0x10(%rbx)
  402456:	48 b8 72 65 73 6f 6c 	movabs $0x2065766c6f736572,%rax
  40245d:	76 65 20 
  402460:	48 89 43 18          	mov    %rax,0x18(%rbx)
  402464:	48 b8 73 65 72 76 65 	movabs $0x6120726576726573,%rax
  40246b:	72 20 61 
  40246e:	48 89 43 20          	mov    %rax,0x20(%rbx)
  402472:	c7 43 28 64 64 72 65 	movl   $0x65726464,0x28(%rbx)
  402479:	66 c7 43 2c 73 73    	movw   $0x7373,0x2c(%rbx)
  40247f:	c6 43 2e 00          	movb   $0x0,0x2e(%rbx)
  402483:	89 ef                	mov    %ebp,%edi
  402485:	e8 a6 e8 ff ff       	callq  400d30 <close@plt>
  40248a:	b8 ff ff ff ff       	mov    $0xffffffff,%eax
  40248f:	e9 21 06 00 00       	jmpq   402ab5 <submitr+0x746>
  402494:	48 c7 44 24 20 00 00 	movq   $0x0,0x20(%rsp)
  40249b:	00 00 
  40249d:	48 c7 44 24 28 00 00 	movq   $0x0,0x28(%rsp)
  4024a4:	00 00 
  4024a6:	66 c7 44 24 20 02 00 	movw   $0x2,0x20(%rsp)
  4024ad:	48 63 50 14          	movslq 0x14(%rax),%rdx
  4024b1:	48 8b 40 18          	mov    0x18(%rax),%rax
  4024b5:	48 8b 30             	mov    (%rax),%rsi
  4024b8:	48 8d 7c 24 24       	lea    0x24(%rsp),%rdi
  4024bd:	b9 0c 00 00 00       	mov    $0xc,%ecx
  4024c2:	e8 b9 e8 ff ff       	callq  400d80 <__memmove_chk@plt>
  4024c7:	0f b7 44 24 04       	movzwl 0x4(%rsp),%eax
  4024cc:	66 c1 c8 08          	ror    $0x8,%ax
  4024d0:	66 89 44 24 22       	mov    %ax,0x22(%rsp)
  4024d5:	ba 10 00 00 00       	mov    $0x10,%edx
  4024da:	48 8d 74 24 20       	lea    0x20(%rsp),%rsi
  4024df:	89 ef                	mov    %ebp,%edi
  4024e1:	e8 7a e9 ff ff       	callq  400e60 <connect@plt>
  4024e6:	85 c0                	test   %eax,%eax
  4024e8:	79 59                	jns    402543 <submitr+0x1d4>
  4024ea:	48 b8 45 72 72 6f 72 	movabs $0x55203a726f727245,%rax
  4024f1:	3a 20 55 
  4024f4:	48 89 03             	mov    %rax,(%rbx)
  4024f7:	48 b8 6e 61 62 6c 65 	movabs $0x6f7420656c62616e,%rax
  4024fe:	20 74 6f 
  402501:	48 89 43 08          	mov    %rax,0x8(%rbx)
  402505:	48 b8 20 63 6f 6e 6e 	movabs $0x7463656e6e6f6320,%rax
  40250c:	65 63 74 
  40250f:	48 89 43 10          	mov    %rax,0x10(%rbx)
  402513:	48 b8 20 74 6f 20 74 	movabs $0x20656874206f7420,%rax
  40251a:	68 65 20 
  40251d:	48 89 43 18          	mov    %rax,0x18(%rbx)
  402521:	c7 43 20 73 65 72 76 	movl   $0x76726573,0x20(%rbx)
  402528:	66 c7 43 24 65 72    	movw   $0x7265,0x24(%rbx)
  40252e:	c6 43 26 00          	movb   $0x0,0x26(%rbx)
  402532:	89 ef                	mov    %ebp,%edi
  402534:	e8 f7 e7 ff ff       	callq  400d30 <close@plt>
  402539:	b8 ff ff ff ff       	mov    $0xffffffff,%eax
  40253e:	e9 72 05 00 00       	jmpq   402ab5 <submitr+0x746>
  402543:	48 c7 c6 ff ff ff ff 	mov    $0xffffffffffffffff,%rsi
  40254a:	b8 00 00 00 00       	mov    $0x0,%eax
  40254f:	48 89 f1             	mov    %rsi,%rcx
  402552:	4c 89 ef             	mov    %r13,%rdi
  402555:	f2 ae                	repnz scas %es:(%rdi),%al
  402557:	48 f7 d1             	not    %rcx
  40255a:	48 89 ca             	mov    %rcx,%rdx
  40255d:	48 89 f1             	mov    %rsi,%rcx
  402560:	4c 89 ff             	mov    %r15,%rdi
  402563:	f2 ae                	repnz scas %es:(%rdi),%al
  402565:	48 f7 d1             	not    %rcx
  402568:	49 89 c8             	mov    %rcx,%r8
  40256b:	48 89 f1             	mov    %rsi,%rcx
  40256e:	4c 89 f7             	mov    %r14,%rdi
  402571:	f2 ae                	repnz scas %es:(%rdi),%al
  402573:	48 f7 d1             	not    %rcx
  402576:	4d 8d 44 08 fe       	lea    -0x2(%r8,%rcx,1),%r8
  40257b:	48 89 f1             	mov    %rsi,%rcx
  40257e:	48 8b 7c 24 08       	mov    0x8(%rsp),%rdi
  402583:	f2 ae                	repnz scas %es:(%rdi),%al
  402585:	48 89 c8             	mov    %rcx,%rax
  402588:	48 f7 d0             	not    %rax
  40258b:	49 8d 4c 00 ff       	lea    -0x1(%r8,%rax,1),%rcx
  402590:	48 8d 44 52 fd       	lea    -0x3(%rdx,%rdx,2),%rax
  402595:	48 8d 84 01 80 00 00 	lea    0x80(%rcx,%rax,1),%rax
  40259c:	00 
  40259d:	48 3d 00 20 00 00    	cmp    $0x2000,%rax
  4025a3:	76 72                	jbe    402617 <submitr+0x2a8>
  4025a5:	48 b8 45 72 72 6f 72 	movabs $0x52203a726f727245,%rax
  4025ac:	3a 20 52 
  4025af:	48 89 03             	mov    %rax,(%rbx)
  4025b2:	48 b8 65 73 75 6c 74 	movabs $0x747320746c757365,%rax
  4025b9:	20 73 74 
  4025bc:	48 89 43 08          	mov    %rax,0x8(%rbx)
  4025c0:	48 b8 72 69 6e 67 20 	movabs $0x6f6f7420676e6972,%rax
  4025c7:	74 6f 6f 
  4025ca:	48 89 43 10          	mov    %rax,0x10(%rbx)
  4025ce:	48 b8 20 6c 61 72 67 	movabs $0x202e656772616c20,%rax
  4025d5:	65 2e 20 
  4025d8:	48 89 43 18          	mov    %rax,0x18(%rbx)
  4025dc:	48 b8 49 6e 63 72 65 	movabs $0x6573616572636e49,%rax
  4025e3:	61 73 65 
  4025e6:	48 89 43 20          	mov    %rax,0x20(%rbx)
  4025ea:	48 b8 20 53 55 42 4d 	movabs $0x5254494d42555320,%rax
  4025f1:	49 54 52 
  4025f4:	48 89 43 28          	mov    %rax,0x28(%rbx)
  4025f8:	48 b8 5f 4d 41 58 42 	movabs $0x46554258414d5f,%rax
  4025ff:	55 46 00 
  402602:	48 89 43 30          	mov    %rax,0x30(%rbx)
  402606:	89 ef                	mov    %ebp,%edi
  402608:	e8 23 e7 ff ff       	callq  400d30 <close@plt>
  40260d:	b8 ff ff ff ff       	mov    $0xffffffff,%eax
  402612:	e9 9e 04 00 00       	jmpq   402ab5 <submitr+0x746>
  402617:	48 8d b4 24 40 40 00 	lea    0x4040(%rsp),%rsi
  40261e:	00 
  40261f:	b9 00 04 00 00       	mov    $0x400,%ecx
  402624:	b8 00 00 00 00       	mov    $0x0,%eax
  402629:	48 89 f7             	mov    %rsi,%rdi
  40262c:	f3 48 ab             	rep stos %rax,%es:(%rdi)
  40262f:	4c 89 ef             	mov    %r13,%rdi
  402632:	e8 2b fc ff ff       	callq  402262 <urlencode>
  402637:	85 c0                	test   %eax,%eax
  402639:	0f 89 8a 00 00 00    	jns    4026c9 <submitr+0x35a>
  40263f:	48 b8 45 72 72 6f 72 	movabs $0x52203a726f727245,%rax
  402646:	3a 20 52 
  402649:	48 89 03             	mov    %rax,(%rbx)
  40264c:	48 b8 65 73 75 6c 74 	movabs $0x747320746c757365,%rax
  402653:	20 73 74 
  402656:	48 89 43 08          	mov    %rax,0x8(%rbx)
  40265a:	48 b8 72 69 6e 67 20 	movabs $0x6e6f6320676e6972,%rax
  402661:	63 6f 6e 
  402664:	48 89 43 10          	mov    %rax,0x10(%rbx)
  402668:	48 b8 74 61 69 6e 73 	movabs $0x6e6120736e696174,%rax
  40266f:	20 61 6e 
  402672:	48 89 43 18          	mov    %rax,0x18(%rbx)
  402676:	48 b8 20 69 6c 6c 65 	movabs $0x6c6167656c6c6920,%rax
  40267d:	67 61 6c 
  402680:	48 89 43 20          	mov    %rax,0x20(%rbx)
  402684:	48 b8 20 6f 72 20 75 	movabs $0x72706e7520726f20,%rax
  40268b:	6e 70 72 
  40268e:	48 89 43 28          	mov    %rax,0x28(%rbx)
  402692:	48 b8 69 6e 74 61 62 	movabs $0x20656c6261746e69,%rax
  402699:	6c 65 20 
  40269c:	48 89 43 30          	mov    %rax,0x30(%rbx)
  4026a0:	48 b8 63 68 61 72 61 	movabs $0x6574636172616863,%rax
  4026a7:	63 74 65 
  4026aa:	48 89 43 38          	mov    %rax,0x38(%rbx)
  4026ae:	66 c7 43 40 72 2e    	movw   $0x2e72,0x40(%rbx)
  4026b4:	c6 43 42 00          	movb   $0x0,0x42(%rbx)
  4026b8:	89 ef                	mov    %ebp,%edi
  4026ba:	e8 71 e6 ff ff       	callq  400d30 <close@plt>
  4026bf:	b8 ff ff ff ff       	mov    $0xffffffff,%eax
  4026c4:	e9 ec 03 00 00       	jmpq   402ab5 <submitr+0x746>
  4026c9:	4c 8d ac 24 40 20 00 	lea    0x2040(%rsp),%r13
  4026d0:	00 
  4026d1:	41 54                	push   %r12
  4026d3:	48 8d 84 24 48 40 00 	lea    0x4048(%rsp),%rax
  4026da:	00 
  4026db:	50                   	push   %rax
  4026dc:	4d 89 f9             	mov    %r15,%r9
  4026df:	4d 89 f0             	mov    %r14,%r8
  4026e2:	b9 d8 36 40 00       	mov    $0x4036d8,%ecx
  4026e7:	ba 00 20 00 00       	mov    $0x2000,%edx
  4026ec:	be 01 00 00 00       	mov    $0x1,%esi
  4026f1:	4c 89 ef             	mov    %r13,%rdi
  4026f4:	b8 00 00 00 00       	mov    $0x0,%eax
  4026f9:	e8 82 e7 ff ff       	callq  400e80 <__sprintf_chk@plt>
  4026fe:	b8 00 00 00 00       	mov    $0x0,%eax
  402703:	48 c7 c1 ff ff ff ff 	mov    $0xffffffffffffffff,%rcx
  40270a:	4c 89 ef             	mov    %r13,%rdi
  40270d:	f2 ae                	repnz scas %es:(%rdi),%al
  40270f:	48 f7 d1             	not    %rcx
  402712:	48 8d 51 ff          	lea    -0x1(%rcx),%rdx
  402716:	4c 89 ee             	mov    %r13,%rsi
  402719:	89 ef                	mov    %ebp,%edi
  40271b:	e8 b1 f9 ff ff       	callq  4020d1 <rio_writen>
  402720:	48 83 c4 10          	add    $0x10,%rsp
  402724:	48 85 c0             	test   %rax,%rax
  402727:	79 6e                	jns    402797 <submitr+0x428>
  402729:	48 b8 45 72 72 6f 72 	movabs $0x43203a726f727245,%rax
  402730:	3a 20 43 
  402733:	48 89 03             	mov    %rax,(%rbx)
  402736:	48 b8 6c 69 65 6e 74 	movabs $0x6e7520746e65696c,%rax
  40273d:	20 75 6e 
  402740:	48 89 43 08          	mov    %rax,0x8(%rbx)
  402744:	48 b8 61 62 6c 65 20 	movabs $0x206f7420656c6261,%rax
  40274b:	74 6f 20 
  40274e:	48 89 43 10          	mov    %rax,0x10(%rbx)
  402752:	48 b8 77 72 69 74 65 	movabs $0x6f74206574697277,%rax
  402759:	20 74 6f 
  40275c:	48 89 43 18          	mov    %rax,0x18(%rbx)
  402760:	48 b8 20 74 68 65 20 	movabs $0x7365722065687420,%rax
  402767:	72 65 73 
  40276a:	48 89 43 20          	mov    %rax,0x20(%rbx)
  40276e:	48 b8 75 6c 74 20 73 	movabs $0x7672657320746c75,%rax
  402775:	65 72 76 
  402778:	48 89 43 28          	mov    %rax,0x28(%rbx)
  40277c:	66 c7 43 30 65 72    	movw   $0x7265,0x30(%rbx)
  402782:	c6 43 32 00          	movb   $0x0,0x32(%rbx)
  402786:	89 ef                	mov    %ebp,%edi
  402788:	e8 a3 e5 ff ff       	callq  400d30 <close@plt>
  40278d:	b8 ff ff ff ff       	mov    $0xffffffff,%eax
  402792:	e9 1e 03 00 00       	jmpq   402ab5 <submitr+0x746>
  402797:	89 ee                	mov    %ebp,%esi
  402799:	48 8d 7c 24 30       	lea    0x30(%rsp),%rdi
  40279e:	e8 ee f8 ff ff       	callq  402091 <rio_readinitb>
  4027a3:	ba 00 20 00 00       	mov    $0x2000,%edx
  4027a8:	48 8d b4 24 40 20 00 	lea    0x2040(%rsp),%rsi
  4027af:	00 
  4027b0:	48 8d 7c 24 30       	lea    0x30(%rsp),%rdi
  4027b5:	e8 fe f9 ff ff       	callq  4021b8 <rio_readlineb>
  4027ba:	48 85 c0             	test   %rax,%rax
  4027bd:	7f 7d                	jg     40283c <submitr+0x4cd>
  4027bf:	48 b8 45 72 72 6f 72 	movabs $0x43203a726f727245,%rax
  4027c6:	3a 20 43 
  4027c9:	48 89 03             	mov    %rax,(%rbx)
  4027cc:	48 b8 6c 69 65 6e 74 	movabs $0x6e7520746e65696c,%rax
  4027d3:	20 75 6e 
  4027d6:	48 89 43 08          	mov    %rax,0x8(%rbx)
  4027da:	48 b8 61 62 6c 65 20 	movabs $0x206f7420656c6261,%rax
  4027e1:	74 6f 20 
  4027e4:	48 89 43 10          	mov    %rax,0x10(%rbx)
  4027e8:	48 b8 72 65 61 64 20 	movabs $0x7269662064616572,%rax
  4027ef:	66 69 72 
  4027f2:	48 89 43 18          	mov    %rax,0x18(%rbx)
  4027f6:	48 b8 73 74 20 68 65 	movabs $0x6564616568207473,%rax
  4027fd:	61 64 65 
  402800:	48 89 43 20          	mov    %rax,0x20(%rbx)
  402804:	48 b8 72 20 66 72 6f 	movabs $0x72206d6f72662072,%rax
  40280b:	6d 20 72 
  40280e:	48 89 43 28          	mov    %rax,0x28(%rbx)
  402812:	48 b8 65 73 75 6c 74 	movabs $0x657320746c757365,%rax
  402819:	20 73 65 
  40281c:	48 89 43 30          	mov    %rax,0x30(%rbx)
  402820:	c7 43 38 72 76 65 72 	movl   $0x72657672,0x38(%rbx)
  402827:	c6 43 3c 00          	movb   $0x0,0x3c(%rbx)
  40282b:	89 ef                	mov    %ebp,%edi
  40282d:	e8 fe e4 ff ff       	callq  400d30 <close@plt>
  402832:	b8 ff ff ff ff       	mov    $0xffffffff,%eax
  402837:	e9 79 02 00 00       	jmpq   402ab5 <submitr+0x746>
  40283c:	4c 8d 84 24 40 80 00 	lea    0x8040(%rsp),%r8
  402843:	00 
  402844:	48 8d 4c 24 1c       	lea    0x1c(%rsp),%rcx
  402849:	48 8d 94 24 40 60 00 	lea    0x6040(%rsp),%rdx
  402850:	00 
  402851:	be 4f 37 40 00       	mov    $0x40374f,%esi
  402856:	48 8d bc 24 40 20 00 	lea    0x2040(%rsp),%rdi
  40285d:	00 
  40285e:	b8 00 00 00 00       	mov    $0x0,%eax
  402863:	e8 78 e5 ff ff       	callq  400de0 <__isoc99_sscanf@plt>
  402868:	e9 95 00 00 00       	jmpq   402902 <submitr+0x593>
  40286d:	ba 00 20 00 00       	mov    $0x2000,%edx
  402872:	48 8d b4 24 40 20 00 	lea    0x2040(%rsp),%rsi
  402879:	00 
  40287a:	48 8d 7c 24 30       	lea    0x30(%rsp),%rdi
  40287f:	e8 34 f9 ff ff       	callq  4021b8 <rio_readlineb>
  402884:	48 85 c0             	test   %rax,%rax
  402887:	7f 79                	jg     402902 <submitr+0x593>
  402889:	48 b8 45 72 72 6f 72 	movabs $0x43203a726f727245,%rax
  402890:	3a 20 43 
  402893:	48 89 03             	mov    %rax,(%rbx)
  402896:	48 b8 6c 69 65 6e 74 	movabs $0x6e7520746e65696c,%rax
  40289d:	20 75 6e 
  4028a0:	48 89 43 08          	mov    %rax,0x8(%rbx)
  4028a4:	48 b8 61 62 6c 65 20 	movabs $0x206f7420656c6261,%rax
  4028ab:	74 6f 20 
  4028ae:	48 89 43 10          	mov    %rax,0x10(%rbx)
  4028b2:	48 b8 72 65 61 64 20 	movabs $0x6165682064616572,%rax
  4028b9:	68 65 61 
  4028bc:	48 89 43 18          	mov    %rax,0x18(%rbx)
  4028c0:	48 b8 64 65 72 73 20 	movabs $0x6f72662073726564,%rax
  4028c7:	66 72 6f 
  4028ca:	48 89 43 20          	mov    %rax,0x20(%rbx)
  4028ce:	48 b8 6d 20 74 68 65 	movabs $0x657220656874206d,%rax
  4028d5:	20 72 65 
  4028d8:	48 89 43 28          	mov    %rax,0x28(%rbx)
  4028dc:	48 b8 73 75 6c 74 20 	movabs $0x72657320746c7573,%rax
  4028e3:	73 65 72 
  4028e6:	48 89 43 30          	mov    %rax,0x30(%rbx)
  4028ea:	c7 43 38 76 65 72 00 	movl   $0x726576,0x38(%rbx)
  4028f1:	89 ef                	mov    %ebp,%edi
  4028f3:	e8 38 e4 ff ff       	callq  400d30 <close@plt>
  4028f8:	b8 ff ff ff ff       	mov    $0xffffffff,%eax
  4028fd:	e9 b3 01 00 00       	jmpq   402ab5 <submitr+0x746>
  402902:	0f b6 94 24 40 20 00 	movzbl 0x2040(%rsp),%edx
  402909:	00 
  40290a:	b8 0d 00 00 00       	mov    $0xd,%eax
  40290f:	29 d0                	sub    %edx,%eax
  402911:	75 1b                	jne    40292e <submitr+0x5bf>
  402913:	0f b6 94 24 41 20 00 	movzbl 0x2041(%rsp),%edx
  40291a:	00 
  40291b:	b8 0a 00 00 00       	mov    $0xa,%eax
  402920:	29 d0                	sub    %edx,%eax
  402922:	75 0a                	jne    40292e <submitr+0x5bf>
  402924:	0f b6 84 24 42 20 00 	movzbl 0x2042(%rsp),%eax
  40292b:	00 
  40292c:	f7 d8                	neg    %eax
  40292e:	85 c0                	test   %eax,%eax
  402930:	0f 85 37 ff ff ff    	jne    40286d <submitr+0x4fe>
  402936:	ba 00 20 00 00       	mov    $0x2000,%edx
  40293b:	48 8d b4 24 40 20 00 	lea    0x2040(%rsp),%rsi
  402942:	00 
  402943:	48 8d 7c 24 30       	lea    0x30(%rsp),%rdi
  402948:	e8 6b f8 ff ff       	callq  4021b8 <rio_readlineb>
  40294d:	48 85 c0             	test   %rax,%rax
  402950:	0f 8f 83 00 00 00    	jg     4029d9 <submitr+0x66a>
  402956:	48 b8 45 72 72 6f 72 	movabs $0x43203a726f727245,%rax
  40295d:	3a 20 43 
  402960:	48 89 03             	mov    %rax,(%rbx)
  402963:	48 b8 6c 69 65 6e 74 	movabs $0x6e7520746e65696c,%rax
  40296a:	20 75 6e 
  40296d:	48 89 43 08          	mov    %rax,0x8(%rbx)
  402971:	48 b8 61 62 6c 65 20 	movabs $0x206f7420656c6261,%rax
  402978:	74 6f 20 
  40297b:	48 89 43 10          	mov    %rax,0x10(%rbx)
  40297f:	48 b8 72 65 61 64 20 	movabs $0x6174732064616572,%rax
  402986:	73 74 61 
  402989:	48 89 43 18          	mov    %rax,0x18(%rbx)
  40298d:	48 b8 74 75 73 20 6d 	movabs $0x7373656d20737574,%rax
  402994:	65 73 73 
  402997:	48 89 43 20          	mov    %rax,0x20(%rbx)
  40299b:	48 b8 61 67 65 20 66 	movabs $0x6d6f726620656761,%rax
  4029a2:	72 6f 6d 
  4029a5:	48 89 43 28          	mov    %rax,0x28(%rbx)
  4029a9:	48 b8 20 72 65 73 75 	movabs $0x20746c7573657220,%rax
  4029b0:	6c 74 20 
  4029b3:	48 89 43 30          	mov    %rax,0x30(%rbx)
  4029b7:	c7 43 38 73 65 72 76 	movl   $0x76726573,0x38(%rbx)
  4029be:	66 c7 43 3c 65 72    	movw   $0x7265,0x3c(%rbx)
  4029c4:	c6 43 3e 00          	movb   $0x0,0x3e(%rbx)
  4029c8:	89 ef                	mov    %ebp,%edi
  4029ca:	e8 61 e3 ff ff       	callq  400d30 <close@plt>
  4029cf:	b8 ff ff ff ff       	mov    $0xffffffff,%eax
  4029d4:	e9 dc 00 00 00       	jmpq   402ab5 <submitr+0x746>
  4029d9:	44 8b 44 24 1c       	mov    0x1c(%rsp),%r8d
  4029de:	41 81 f8 c8 00 00 00 	cmp    $0xc8,%r8d
  4029e5:	74 37                	je     402a1e <submitr+0x6af>
  4029e7:	4c 8d 8c 24 40 80 00 	lea    0x8040(%rsp),%r9
  4029ee:	00 
  4029ef:	b9 18 37 40 00       	mov    $0x403718,%ecx
  4029f4:	48 c7 c2 ff ff ff ff 	mov    $0xffffffffffffffff,%rdx
  4029fb:	be 01 00 00 00       	mov    $0x1,%esi
  402a00:	48 89 df             	mov    %rbx,%rdi
  402a03:	b8 00 00 00 00       	mov    $0x0,%eax
  402a08:	e8 73 e4 ff ff       	callq  400e80 <__sprintf_chk@plt>
  402a0d:	89 ef                	mov    %ebp,%edi
  402a0f:	e8 1c e3 ff ff       	callq  400d30 <close@plt>
  402a14:	b8 ff ff ff ff       	mov    $0xffffffff,%eax
  402a19:	e9 97 00 00 00       	jmpq   402ab5 <submitr+0x746>
  402a1e:	48 8d b4 24 40 20 00 	lea    0x2040(%rsp),%rsi
  402a25:	00 
  402a26:	48 89 df             	mov    %rbx,%rdi
  402a29:	e8 92 e2 ff ff       	callq  400cc0 <strcpy@plt>
  402a2e:	89 ef                	mov    %ebp,%edi
  402a30:	e8 fb e2 ff ff       	callq  400d30 <close@plt>
  402a35:	0f b6 03             	movzbl (%rbx),%eax
  402a38:	ba 4f 00 00 00       	mov    $0x4f,%edx
  402a3d:	29 c2                	sub    %eax,%edx
  402a3f:	75 22                	jne    402a63 <submitr+0x6f4>
  402a41:	0f b6 4b 01          	movzbl 0x1(%rbx),%ecx
  402a45:	b8 4b 00 00 00       	mov    $0x4b,%eax
  402a4a:	29 c8                	sub    %ecx,%eax
  402a4c:	75 17                	jne    402a65 <submitr+0x6f6>
  402a4e:	0f b6 4b 02          	movzbl 0x2(%rbx),%ecx
  402a52:	b8 0a 00 00 00       	mov    $0xa,%eax
  402a57:	29 c8                	sub    %ecx,%eax
  402a59:	75 0a                	jne    402a65 <submitr+0x6f6>
  402a5b:	0f b6 43 03          	movzbl 0x3(%rbx),%eax
  402a5f:	f7 d8                	neg    %eax
  402a61:	eb 02                	jmp    402a65 <submitr+0x6f6>
  402a63:	89 d0                	mov    %edx,%eax
  402a65:	85 c0                	test   %eax,%eax
  402a67:	74 40                	je     402aa9 <submitr+0x73a>
  402a69:	bf 60 37 40 00       	mov    $0x403760,%edi
  402a6e:	b9 05 00 00 00       	mov    $0x5,%ecx
  402a73:	48 89 de             	mov    %rbx,%rsi
  402a76:	f3 a6                	repz cmpsb %es:(%rdi),%ds:(%rsi)
  402a78:	0f 97 c0             	seta   %al
  402a7b:	0f 92 c1             	setb   %cl
  402a7e:	29 c8                	sub    %ecx,%eax
  402a80:	0f be c0             	movsbl %al,%eax
  402a83:	85 c0                	test   %eax,%eax
  402a85:	74 2e                	je     402ab5 <submitr+0x746>
  402a87:	85 d2                	test   %edx,%edx
  402a89:	75 13                	jne    402a9e <submitr+0x72f>
  402a8b:	0f b6 43 01          	movzbl 0x1(%rbx),%eax
  402a8f:	ba 4b 00 00 00       	mov    $0x4b,%edx
  402a94:	29 c2                	sub    %eax,%edx
  402a96:	75 06                	jne    402a9e <submitr+0x72f>
  402a98:	0f b6 53 02          	movzbl 0x2(%rbx),%edx
  402a9c:	f7 da                	neg    %edx
  402a9e:	85 d2                	test   %edx,%edx
  402aa0:	75 0e                	jne    402ab0 <submitr+0x741>
  402aa2:	b8 00 00 00 00       	mov    $0x0,%eax
  402aa7:	eb 0c                	jmp    402ab5 <submitr+0x746>
  402aa9:	b8 00 00 00 00       	mov    $0x0,%eax
  402aae:	eb 05                	jmp    402ab5 <submitr+0x746>
  402ab0:	b8 ff ff ff ff       	mov    $0xffffffff,%eax
  402ab5:	48 8b 9c 24 48 a0 00 	mov    0xa048(%rsp),%rbx
  402abc:	00 
  402abd:	64 48 33 1c 25 28 00 	xor    %fs:0x28,%rbx
  402ac4:	00 00 
  402ac6:	74 05                	je     402acd <submitr+0x75e>
  402ac8:	e8 23 e2 ff ff       	callq  400cf0 <__stack_chk_fail@plt>
  402acd:	48 81 c4 58 a0 00 00 	add    $0xa058,%rsp
  402ad4:	5b                   	pop    %rbx
  402ad5:	5d                   	pop    %rbp
  402ad6:	41 5c                	pop    %r12
  402ad8:	41 5d                	pop    %r13
  402ada:	41 5e                	pop    %r14
  402adc:	41 5f                	pop    %r15
  402ade:	c3                   	retq   

0000000000402adf <init_timeout>:
  402adf:	85 ff                	test   %edi,%edi
  402ae1:	74 23                	je     402b06 <init_timeout+0x27>
  402ae3:	53                   	push   %rbx
  402ae4:	89 fb                	mov    %edi,%ebx
  402ae6:	85 ff                	test   %edi,%edi
  402ae8:	79 05                	jns    402aef <init_timeout+0x10>
  402aea:	bb 00 00 00 00       	mov    $0x0,%ebx
  402aef:	be a3 20 40 00       	mov    $0x4020a3,%esi
  402af4:	bf 0e 00 00 00       	mov    $0xe,%edi
  402af9:	e8 62 e2 ff ff       	callq  400d60 <signal@plt>
  402afe:	89 df                	mov    %ebx,%edi
  402b00:	e8 1b e2 ff ff       	callq  400d20 <alarm@plt>
  402b05:	5b                   	pop    %rbx
  402b06:	f3 c3                	repz retq 

0000000000402b08 <init_driver>:
  402b08:	55                   	push   %rbp
  402b09:	53                   	push   %rbx
  402b0a:	48 83 ec 28          	sub    $0x28,%rsp
  402b0e:	48 89 fd             	mov    %rdi,%rbp
  402b11:	64 48 8b 04 25 28 00 	mov    %fs:0x28,%rax
  402b18:	00 00 
  402b1a:	48 89 44 24 18       	mov    %rax,0x18(%rsp)
  402b1f:	31 c0                	xor    %eax,%eax
  402b21:	be 01 00 00 00       	mov    $0x1,%esi
  402b26:	bf 0d 00 00 00       	mov    $0xd,%edi
  402b2b:	e8 30 e2 ff ff       	callq  400d60 <signal@plt>
  402b30:	be 01 00 00 00       	mov    $0x1,%esi
  402b35:	bf 1d 00 00 00       	mov    $0x1d,%edi
  402b3a:	e8 21 e2 ff ff       	callq  400d60 <signal@plt>
  402b3f:	be 01 00 00 00       	mov    $0x1,%esi
  402b44:	bf 1d 00 00 00       	mov    $0x1d,%edi
  402b49:	e8 12 e2 ff ff       	callq  400d60 <signal@plt>
  402b4e:	ba 00 00 00 00       	mov    $0x0,%edx
  402b53:	be 01 00 00 00       	mov    $0x1,%esi
  402b58:	bf 02 00 00 00       	mov    $0x2,%edi
  402b5d:	e8 2e e3 ff ff       	callq  400e90 <socket@plt>
  402b62:	85 c0                	test   %eax,%eax
  402b64:	79 4f                	jns    402bb5 <init_driver+0xad>
  402b66:	48 b8 45 72 72 6f 72 	movabs $0x43203a726f727245,%rax
  402b6d:	3a 20 43 
  402b70:	48 89 45 00          	mov    %rax,0x0(%rbp)
  402b74:	48 b8 6c 69 65 6e 74 	movabs $0x6e7520746e65696c,%rax
  402b7b:	20 75 6e 
  402b7e:	48 89 45 08          	mov    %rax,0x8(%rbp)
  402b82:	48 b8 61 62 6c 65 20 	movabs $0x206f7420656c6261,%rax
  402b89:	74 6f 20 
  402b8c:	48 89 45 10          	mov    %rax,0x10(%rbp)
  402b90:	48 b8 63 72 65 61 74 	movabs $0x7320657461657263,%rax
  402b97:	65 20 73 
  402b9a:	48 89 45 18          	mov    %rax,0x18(%rbp)
  402b9e:	c7 45 20 6f 63 6b 65 	movl   $0x656b636f,0x20(%rbp)
  402ba5:	66 c7 45 24 74 00    	movw   $0x74,0x24(%rbp)
  402bab:	b8 ff ff ff ff       	mov    $0xffffffff,%eax
  402bb0:	e9 2a 01 00 00       	jmpq   402cdf <init_driver+0x1d7>
  402bb5:	89 c3                	mov    %eax,%ebx
  402bb7:	bf 65 37 40 00       	mov    $0x403765,%edi
  402bbc:	e8 af e1 ff ff       	callq  400d70 <gethostbyname@plt>
  402bc1:	48 85 c0             	test   %rax,%rax
  402bc4:	75 68                	jne    402c2e <init_driver+0x126>
  402bc6:	48 b8 45 72 72 6f 72 	movabs $0x44203a726f727245,%rax
  402bcd:	3a 20 44 
  402bd0:	48 89 45 00          	mov    %rax,0x0(%rbp)
  402bd4:	48 b8 4e 53 20 69 73 	movabs $0x6e7520736920534e,%rax
  402bdb:	20 75 6e 
  402bde:	48 89 45 08          	mov    %rax,0x8(%rbp)
  402be2:	48 b8 61 62 6c 65 20 	movabs $0x206f7420656c6261,%rax
  402be9:	74 6f 20 
  402bec:	48 89 45 10          	mov    %rax,0x10(%rbp)
  402bf0:	48 b8 72 65 73 6f 6c 	movabs $0x2065766c6f736572,%rax
  402bf7:	76 65 20 
  402bfa:	48 89 45 18          	mov    %rax,0x18(%rbp)
  402bfe:	48 b8 73 65 72 76 65 	movabs $0x6120726576726573,%rax
  402c05:	72 20 61 
  402c08:	48 89 45 20          	mov    %rax,0x20(%rbp)
  402c0c:	c7 45 28 64 64 72 65 	movl   $0x65726464,0x28(%rbp)
  402c13:	66 c7 45 2c 73 73    	movw   $0x7373,0x2c(%rbp)
  402c19:	c6 45 2e 00          	movb   $0x0,0x2e(%rbp)
  402c1d:	89 df                	mov    %ebx,%edi
  402c1f:	e8 0c e1 ff ff       	callq  400d30 <close@plt>
  402c24:	b8 ff ff ff ff       	mov    $0xffffffff,%eax
  402c29:	e9 b1 00 00 00       	jmpq   402cdf <init_driver+0x1d7>
  402c2e:	48 c7 04 24 00 00 00 	movq   $0x0,(%rsp)
  402c35:	00 
  402c36:	48 c7 44 24 08 00 00 	movq   $0x0,0x8(%rsp)
  402c3d:	00 00 
  402c3f:	66 c7 04 24 02 00    	movw   $0x2,(%rsp)
  402c45:	48 63 50 14          	movslq 0x14(%rax),%rdx
  402c49:	48 8b 40 18          	mov    0x18(%rax),%rax
  402c4d:	48 8b 30             	mov    (%rax),%rsi
  402c50:	48 8d 7c 24 04       	lea    0x4(%rsp),%rdi
  402c55:	b9 0c 00 00 00       	mov    $0xc,%ecx
  402c5a:	e8 21 e1 ff ff       	callq  400d80 <__memmove_chk@plt>
  402c5f:	66 c7 44 24 02 3c 9a 	movw   $0x9a3c,0x2(%rsp)
  402c66:	ba 10 00 00 00       	mov    $0x10,%edx
  402c6b:	48 89 e6             	mov    %rsp,%rsi
  402c6e:	89 df                	mov    %ebx,%edi
  402c70:	e8 eb e1 ff ff       	callq  400e60 <connect@plt>
  402c75:	85 c0                	test   %eax,%eax
  402c77:	79 50                	jns    402cc9 <init_driver+0x1c1>
  402c79:	48 b8 45 72 72 6f 72 	movabs $0x55203a726f727245,%rax
  402c80:	3a 20 55 
  402c83:	48 89 45 00          	mov    %rax,0x0(%rbp)
  402c87:	48 b8 6e 61 62 6c 65 	movabs $0x6f7420656c62616e,%rax
  402c8e:	20 74 6f 
  402c91:	48 89 45 08          	mov    %rax,0x8(%rbp)
  402c95:	48 b8 20 63 6f 6e 6e 	movabs $0x7463656e6e6f6320,%rax
  402c9c:	65 63 74 
  402c9f:	48 89 45 10          	mov    %rax,0x10(%rbp)
  402ca3:	48 b8 20 74 6f 20 73 	movabs $0x76726573206f7420,%rax
  402caa:	65 72 76 
  402cad:	48 89 45 18          	mov    %rax,0x18(%rbp)
  402cb1:	66 c7 45 20 65 72    	movw   $0x7265,0x20(%rbp)
  402cb7:	c6 45 22 00          	movb   $0x0,0x22(%rbp)
  402cbb:	89 df                	mov    %ebx,%edi
  402cbd:	e8 6e e0 ff ff       	callq  400d30 <close@plt>
  402cc2:	b8 ff ff ff ff       	mov    $0xffffffff,%eax
  402cc7:	eb 16                	jmp    402cdf <init_driver+0x1d7>
  402cc9:	89 df                	mov    %ebx,%edi
  402ccb:	e8 60 e0 ff ff       	callq  400d30 <close@plt>
  402cd0:	66 c7 45 00 4f 4b    	movw   $0x4b4f,0x0(%rbp)
  402cd6:	c6 45 02 00          	movb   $0x0,0x2(%rbp)
  402cda:	b8 00 00 00 00       	mov    $0x0,%eax
  402cdf:	48 8b 4c 24 18       	mov    0x18(%rsp),%rcx
  402ce4:	64 48 33 0c 25 28 00 	xor    %fs:0x28,%rcx
  402ceb:	00 00 
  402ced:	74 05                	je     402cf4 <init_driver+0x1ec>
  402cef:	e8 fc df ff ff       	callq  400cf0 <__stack_chk_fail@plt>
  402cf4:	48 83 c4 28          	add    $0x28,%rsp
  402cf8:	5b                   	pop    %rbx
  402cf9:	5d                   	pop    %rbp
  402cfa:	c3                   	retq   

0000000000402cfb <driver_post>:
  402cfb:	53                   	push   %rbx
  402cfc:	4c 89 cb             	mov    %r9,%rbx
  402cff:	45 85 c0             	test   %r8d,%r8d
  402d02:	74 27                	je     402d2b <driver_post+0x30>
  402d04:	48 89 ca             	mov    %rcx,%rdx
  402d07:	be 7c 37 40 00       	mov    $0x40377c,%esi
  402d0c:	bf 01 00 00 00       	mov    $0x1,%edi
  402d11:	b8 00 00 00 00       	mov    $0x0,%eax
  402d16:	e8 e5 e0 ff ff       	callq  400e00 <__printf_chk@plt>
  402d1b:	66 c7 03 4f 4b       	movw   $0x4b4f,(%rbx)
  402d20:	c6 43 02 00          	movb   $0x0,0x2(%rbx)
  402d24:	b8 00 00 00 00       	mov    $0x0,%eax
  402d29:	eb 3f                	jmp    402d6a <driver_post+0x6f>
  402d2b:	48 85 ff             	test   %rdi,%rdi
  402d2e:	74 2c                	je     402d5c <driver_post+0x61>
  402d30:	80 3f 00             	cmpb   $0x0,(%rdi)
  402d33:	74 27                	je     402d5c <driver_post+0x61>
  402d35:	48 83 ec 08          	sub    $0x8,%rsp
  402d39:	41 51                	push   %r9
  402d3b:	49 89 c9             	mov    %rcx,%r9
  402d3e:	49 89 d0             	mov    %rdx,%r8
  402d41:	48 89 f9             	mov    %rdi,%rcx
  402d44:	48 89 f2             	mov    %rsi,%rdx
  402d47:	be 9a 3c 00 00       	mov    $0x3c9a,%esi
  402d4c:	bf 65 37 40 00       	mov    $0x403765,%edi
  402d51:	e8 19 f6 ff ff       	callq  40236f <submitr>
  402d56:	48 83 c4 10          	add    $0x10,%rsp
  402d5a:	eb 0e                	jmp    402d6a <driver_post+0x6f>
  402d5c:	66 c7 03 4f 4b       	movw   $0x4b4f,(%rbx)
  402d61:	c6 43 02 00          	movb   $0x0,0x2(%rbx)
  402d65:	b8 00 00 00 00       	mov    $0x0,%eax
  402d6a:	5b                   	pop    %rbx
  402d6b:	c3                   	retq   

0000000000402d6c <check>:
  402d6c:	89 f8                	mov    %edi,%eax
  402d6e:	c1 e8 1c             	shr    $0x1c,%eax
  402d71:	85 c0                	test   %eax,%eax
  402d73:	74 1d                	je     402d92 <check+0x26>
  402d75:	b9 00 00 00 00       	mov    $0x0,%ecx
  402d7a:	eb 0b                	jmp    402d87 <check+0x1b>
  402d7c:	89 f8                	mov    %edi,%eax
  402d7e:	d3 e8                	shr    %cl,%eax
  402d80:	3c 0a                	cmp    $0xa,%al
  402d82:	74 14                	je     402d98 <check+0x2c>
  402d84:	83 c1 08             	add    $0x8,%ecx
  402d87:	83 f9 1f             	cmp    $0x1f,%ecx
  402d8a:	7e f0                	jle    402d7c <check+0x10>
  402d8c:	b8 01 00 00 00       	mov    $0x1,%eax
  402d91:	c3                   	retq   
  402d92:	b8 00 00 00 00       	mov    $0x0,%eax
  402d97:	c3                   	retq   
  402d98:	b8 00 00 00 00       	mov    $0x0,%eax
  402d9d:	c3                   	retq   

0000000000402d9e <gencookie>:
  402d9e:	53                   	push   %rbx
  402d9f:	83 c7 01             	add    $0x1,%edi
  402da2:	e8 f9 de ff ff       	callq  400ca0 <srandom@plt>
  402da7:	e8 14 e0 ff ff       	callq  400dc0 <random@plt>
  402dac:	89 c3                	mov    %eax,%ebx
  402dae:	89 c7                	mov    %eax,%edi
  402db0:	e8 b7 ff ff ff       	callq  402d6c <check>
  402db5:	85 c0                	test   %eax,%eax
  402db7:	74 ee                	je     402da7 <gencookie+0x9>
  402db9:	89 d8                	mov    %ebx,%eax
  402dbb:	5b                   	pop    %rbx
  402dbc:	c3                   	retq   
  402dbd:	0f 1f 00             	nopl   (%rax)

0000000000402dc0 <__libc_csu_init>:
  402dc0:	41 57                	push   %r15
  402dc2:	41 56                	push   %r14
  402dc4:	41 89 ff             	mov    %edi,%r15d
  402dc7:	41 55                	push   %r13
  402dc9:	41 54                	push   %r12
  402dcb:	4c 8d 25 3e 20 20 00 	lea    0x20203e(%rip),%r12        # 604e10 <__frame_dummy_init_array_entry>
  402dd2:	55                   	push   %rbp
  402dd3:	48 8d 2d 3e 20 20 00 	lea    0x20203e(%rip),%rbp        # 604e18 <__init_array_end>
  402dda:	53                   	push   %rbx
  402ddb:	49 89 f6             	mov    %rsi,%r14
  402dde:	49 89 d5             	mov    %rdx,%r13
  402de1:	4c 29 e5             	sub    %r12,%rbp
  402de4:	48 83 ec 08          	sub    $0x8,%rsp
  402de8:	48 c1 fd 03          	sar    $0x3,%rbp
  402dec:	e8 57 de ff ff       	callq  400c48 <_init>
  402df1:	48 85 ed             	test   %rbp,%rbp
  402df4:	74 20                	je     402e16 <__libc_csu_init+0x56>
  402df6:	31 db                	xor    %ebx,%ebx
  402df8:	0f 1f 84 00 00 00 00 	nopl   0x0(%rax,%rax,1)
  402dff:	00 
  402e00:	4c 89 ea             	mov    %r13,%rdx
  402e03:	4c 89 f6             	mov    %r14,%rsi
  402e06:	44 89 ff             	mov    %r15d,%edi
  402e09:	41 ff 14 dc          	callq  *(%r12,%rbx,8)
  402e0d:	48 83 c3 01          	add    $0x1,%rbx
  402e11:	48 39 eb             	cmp    %rbp,%rbx
  402e14:	75 ea                	jne    402e00 <__libc_csu_init+0x40>
  402e16:	48 83 c4 08          	add    $0x8,%rsp
  402e1a:	5b                   	pop    %rbx
  402e1b:	5d                   	pop    %rbp
  402e1c:	41 5c                	pop    %r12
  402e1e:	41 5d                	pop    %r13
  402e20:	41 5e                	pop    %r14
  402e22:	41 5f                	pop    %r15
  402e24:	c3                   	retq   
  402e25:	90                   	nop
  402e26:	66 2e 0f 1f 84 00 00 	nopw   %cs:0x0(%rax,%rax,1)
  402e2d:	00 00 00 

0000000000402e30 <__libc_csu_fini>:
  402e30:	f3 c3                	repz retq 

Disassembly of section .fini:

0000000000402e34 <_fini>:
  402e34:	48 83 ec 08          	sub    $0x8,%rsp
  402e38:	48 83 c4 08          	add    $0x8,%rsp
  402e3c:	c3                   	retq   
