
./rtarget:     file format elf64-x86-64


Disassembly of section .init:

0000000000400c48 <_init>:
  400c48:	48 83 ec 08          	sub    $0x8,%rsp
  400c4c:	48 8b 05 a5 43 20 00 	mov    0x2043a5(%rip),%rax        # 604ff8 <__gmon_start__>
  400c53:	48 85 c0             	test   %rax,%rax
  400c56:	74 05                	je     400c5d <_init+0x15>
  400c58:	e8 43 02 00 00       	callq  400ea0 <__gmon_start__@plt>
  400c5d:	48 83 c4 08          	add    $0x8,%rsp
  400c61:	c3                   	retq   

Disassembly of section .plt:

0000000000400c70 <.plt>:
  400c70:	ff 35 92 43 20 00    	pushq  0x204392(%rip)        # 605008 <_GLOBAL_OFFSET_TABLE_+0x8>
  400c76:	ff 25 94 43 20 00    	jmpq   *0x204394(%rip)        # 605010 <_GLOBAL_OFFSET_TABLE_+0x10>
  400c7c:	0f 1f 40 00          	nopl   0x0(%rax)

0000000000400c80 <strcasecmp@plt>:
  400c80:	ff 25 92 43 20 00    	jmpq   *0x204392(%rip)        # 605018 <strcasecmp@GLIBC_2.2.5>
  400c86:	68 00 00 00 00       	pushq  $0x0
  400c8b:	e9 e0 ff ff ff       	jmpq   400c70 <.plt>

0000000000400c90 <__errno_location@plt>:
  400c90:	ff 25 8a 43 20 00    	jmpq   *0x20438a(%rip)        # 605020 <__errno_location@GLIBC_2.2.5>
  400c96:	68 01 00 00 00       	pushq  $0x1
  400c9b:	e9 d0 ff ff ff       	jmpq   400c70 <.plt>

0000000000400ca0 <srandom@plt>:
  400ca0:	ff 25 82 43 20 00    	jmpq   *0x204382(%rip)        # 605028 <srandom@GLIBC_2.2.5>
  400ca6:	68 02 00 00 00       	pushq  $0x2
  400cab:	e9 c0 ff ff ff       	jmpq   400c70 <.plt>

0000000000400cb0 <strncmp@plt>:
  400cb0:	ff 25 7a 43 20 00    	jmpq   *0x20437a(%rip)        # 605030 <strncmp@GLIBC_2.2.5>
  400cb6:	68 03 00 00 00       	pushq  $0x3
  400cbb:	e9 b0 ff ff ff       	jmpq   400c70 <.plt>

0000000000400cc0 <strcpy@plt>:
  400cc0:	ff 25 72 43 20 00    	jmpq   *0x204372(%rip)        # 605038 <strcpy@GLIBC_2.2.5>
  400cc6:	68 04 00 00 00       	pushq  $0x4
  400ccb:	e9 a0 ff ff ff       	jmpq   400c70 <.plt>

0000000000400cd0 <puts@plt>:
  400cd0:	ff 25 6a 43 20 00    	jmpq   *0x20436a(%rip)        # 605040 <puts@GLIBC_2.2.5>
  400cd6:	68 05 00 00 00       	pushq  $0x5
  400cdb:	e9 90 ff ff ff       	jmpq   400c70 <.plt>

0000000000400ce0 <write@plt>:
  400ce0:	ff 25 62 43 20 00    	jmpq   *0x204362(%rip)        # 605048 <write@GLIBC_2.2.5>
  400ce6:	68 06 00 00 00       	pushq  $0x6
  400ceb:	e9 80 ff ff ff       	jmpq   400c70 <.plt>

0000000000400cf0 <__stack_chk_fail@plt>:
  400cf0:	ff 25 5a 43 20 00    	jmpq   *0x20435a(%rip)        # 605050 <__stack_chk_fail@GLIBC_2.4>
  400cf6:	68 07 00 00 00       	pushq  $0x7
  400cfb:	e9 70 ff ff ff       	jmpq   400c70 <.plt>

0000000000400d00 <mmap@plt>:
  400d00:	ff 25 52 43 20 00    	jmpq   *0x204352(%rip)        # 605058 <mmap@GLIBC_2.2.5>
  400d06:	68 08 00 00 00       	pushq  $0x8
  400d0b:	e9 60 ff ff ff       	jmpq   400c70 <.plt>

0000000000400d10 <memset@plt>:
  400d10:	ff 25 4a 43 20 00    	jmpq   *0x20434a(%rip)        # 605060 <memset@GLIBC_2.2.5>
  400d16:	68 09 00 00 00       	pushq  $0x9
  400d1b:	e9 50 ff ff ff       	jmpq   400c70 <.plt>

0000000000400d20 <alarm@plt>:
  400d20:	ff 25 42 43 20 00    	jmpq   *0x204342(%rip)        # 605068 <alarm@GLIBC_2.2.5>
  400d26:	68 0a 00 00 00       	pushq  $0xa
  400d2b:	e9 40 ff ff ff       	jmpq   400c70 <.plt>

0000000000400d30 <close@plt>:
  400d30:	ff 25 3a 43 20 00    	jmpq   *0x20433a(%rip)        # 605070 <close@GLIBC_2.2.5>
  400d36:	68 0b 00 00 00       	pushq  $0xb
  400d3b:	e9 30 ff ff ff       	jmpq   400c70 <.plt>

0000000000400d40 <read@plt>:
  400d40:	ff 25 32 43 20 00    	jmpq   *0x204332(%rip)        # 605078 <read@GLIBC_2.2.5>
  400d46:	68 0c 00 00 00       	pushq  $0xc
  400d4b:	e9 20 ff ff ff       	jmpq   400c70 <.plt>

0000000000400d50 <__libc_start_main@plt>:
  400d50:	ff 25 2a 43 20 00    	jmpq   *0x20432a(%rip)        # 605080 <__libc_start_main@GLIBC_2.2.5>
  400d56:	68 0d 00 00 00       	pushq  $0xd
  400d5b:	e9 10 ff ff ff       	jmpq   400c70 <.plt>

0000000000400d60 <signal@plt>:
  400d60:	ff 25 22 43 20 00    	jmpq   *0x204322(%rip)        # 605088 <signal@GLIBC_2.2.5>
  400d66:	68 0e 00 00 00       	pushq  $0xe
  400d6b:	e9 00 ff ff ff       	jmpq   400c70 <.plt>

0000000000400d70 <gethostbyname@plt>:
  400d70:	ff 25 1a 43 20 00    	jmpq   *0x20431a(%rip)        # 605090 <gethostbyname@GLIBC_2.2.5>
  400d76:	68 0f 00 00 00       	pushq  $0xf
  400d7b:	e9 f0 fe ff ff       	jmpq   400c70 <.plt>

0000000000400d80 <__memmove_chk@plt>:
  400d80:	ff 25 12 43 20 00    	jmpq   *0x204312(%rip)        # 605098 <__memmove_chk@GLIBC_2.3.4>
  400d86:	68 10 00 00 00       	pushq  $0x10
  400d8b:	e9 e0 fe ff ff       	jmpq   400c70 <.plt>

0000000000400d90 <strtol@plt>:
  400d90:	ff 25 0a 43 20 00    	jmpq   *0x20430a(%rip)        # 6050a0 <strtol@GLIBC_2.2.5>
  400d96:	68 11 00 00 00       	pushq  $0x11
  400d9b:	e9 d0 fe ff ff       	jmpq   400c70 <.plt>

0000000000400da0 <memcpy@plt>:
  400da0:	ff 25 02 43 20 00    	jmpq   *0x204302(%rip)        # 6050a8 <memcpy@GLIBC_2.14>
  400da6:	68 12 00 00 00       	pushq  $0x12
  400dab:	e9 c0 fe ff ff       	jmpq   400c70 <.plt>

0000000000400db0 <time@plt>:
  400db0:	ff 25 fa 42 20 00    	jmpq   *0x2042fa(%rip)        # 6050b0 <time@GLIBC_2.2.5>
  400db6:	68 13 00 00 00       	pushq  $0x13
  400dbb:	e9 b0 fe ff ff       	jmpq   400c70 <.plt>

0000000000400dc0 <random@plt>:
  400dc0:	ff 25 f2 42 20 00    	jmpq   *0x2042f2(%rip)        # 6050b8 <random@GLIBC_2.2.5>
  400dc6:	68 14 00 00 00       	pushq  $0x14
  400dcb:	e9 a0 fe ff ff       	jmpq   400c70 <.plt>

0000000000400dd0 <_IO_getc@plt>:
  400dd0:	ff 25 ea 42 20 00    	jmpq   *0x2042ea(%rip)        # 6050c0 <_IO_getc@GLIBC_2.2.5>
  400dd6:	68 15 00 00 00       	pushq  $0x15
  400ddb:	e9 90 fe ff ff       	jmpq   400c70 <.plt>

0000000000400de0 <__isoc99_sscanf@plt>:
  400de0:	ff 25 e2 42 20 00    	jmpq   *0x2042e2(%rip)        # 6050c8 <__isoc99_sscanf@GLIBC_2.7>
  400de6:	68 16 00 00 00       	pushq  $0x16
  400deb:	e9 80 fe ff ff       	jmpq   400c70 <.plt>

0000000000400df0 <munmap@plt>:
  400df0:	ff 25 da 42 20 00    	jmpq   *0x2042da(%rip)        # 6050d0 <munmap@GLIBC_2.2.5>
  400df6:	68 17 00 00 00       	pushq  $0x17
  400dfb:	e9 70 fe ff ff       	jmpq   400c70 <.plt>

0000000000400e00 <__printf_chk@plt>:
  400e00:	ff 25 d2 42 20 00    	jmpq   *0x2042d2(%rip)        # 6050d8 <__printf_chk@GLIBC_2.3.4>
  400e06:	68 18 00 00 00       	pushq  $0x18
  400e0b:	e9 60 fe ff ff       	jmpq   400c70 <.plt>

0000000000400e10 <fopen@plt>:
  400e10:	ff 25 ca 42 20 00    	jmpq   *0x2042ca(%rip)        # 6050e0 <fopen@GLIBC_2.2.5>
  400e16:	68 19 00 00 00       	pushq  $0x19
  400e1b:	e9 50 fe ff ff       	jmpq   400c70 <.plt>

0000000000400e20 <getopt@plt>:
  400e20:	ff 25 c2 42 20 00    	jmpq   *0x2042c2(%rip)        # 6050e8 <getopt@GLIBC_2.2.5>
  400e26:	68 1a 00 00 00       	pushq  $0x1a
  400e2b:	e9 40 fe ff ff       	jmpq   400c70 <.plt>

0000000000400e30 <strtoul@plt>:
  400e30:	ff 25 ba 42 20 00    	jmpq   *0x2042ba(%rip)        # 6050f0 <strtoul@GLIBC_2.2.5>
  400e36:	68 1b 00 00 00       	pushq  $0x1b
  400e3b:	e9 30 fe ff ff       	jmpq   400c70 <.plt>

0000000000400e40 <gethostname@plt>:
  400e40:	ff 25 b2 42 20 00    	jmpq   *0x2042b2(%rip)        # 6050f8 <gethostname@GLIBC_2.2.5>
  400e46:	68 1c 00 00 00       	pushq  $0x1c
  400e4b:	e9 20 fe ff ff       	jmpq   400c70 <.plt>

0000000000400e50 <exit@plt>:
  400e50:	ff 25 aa 42 20 00    	jmpq   *0x2042aa(%rip)        # 605100 <exit@GLIBC_2.2.5>
  400e56:	68 1d 00 00 00       	pushq  $0x1d
  400e5b:	e9 10 fe ff ff       	jmpq   400c70 <.plt>

0000000000400e60 <connect@plt>:
  400e60:	ff 25 a2 42 20 00    	jmpq   *0x2042a2(%rip)        # 605108 <connect@GLIBC_2.2.5>
  400e66:	68 1e 00 00 00       	pushq  $0x1e
  400e6b:	e9 00 fe ff ff       	jmpq   400c70 <.plt>

0000000000400e70 <__fprintf_chk@plt>:
  400e70:	ff 25 9a 42 20 00    	jmpq   *0x20429a(%rip)        # 605110 <__fprintf_chk@GLIBC_2.3.4>
  400e76:	68 1f 00 00 00       	pushq  $0x1f
  400e7b:	e9 f0 fd ff ff       	jmpq   400c70 <.plt>

0000000000400e80 <__sprintf_chk@plt>:
  400e80:	ff 25 92 42 20 00    	jmpq   *0x204292(%rip)        # 605118 <__sprintf_chk@GLIBC_2.3.4>
  400e86:	68 20 00 00 00       	pushq  $0x20
  400e8b:	e9 e0 fd ff ff       	jmpq   400c70 <.plt>

0000000000400e90 <socket@plt>:
  400e90:	ff 25 8a 42 20 00    	jmpq   *0x20428a(%rip)        # 605120 <socket@GLIBC_2.2.5>
  400e96:	68 21 00 00 00       	pushq  $0x21
  400e9b:	e9 d0 fd ff ff       	jmpq   400c70 <.plt>

Disassembly of section .plt.got:

0000000000400ea0 <__gmon_start__@plt>:
  400ea0:	ff 25 52 41 20 00    	jmpq   *0x204152(%rip)        # 604ff8 <__gmon_start__>
  400ea6:	66 90                	xchg   %ax,%ax

Disassembly of section .text:

0000000000400eb0 <_start>:
  400eb0:	31 ed                	xor    %ebp,%ebp
  400eb2:	49 89 d1             	mov    %rdx,%r9
  400eb5:	5e                   	pop    %rsi
  400eb6:	48 89 e2             	mov    %rsp,%rdx
  400eb9:	48 83 e4 f0          	and    $0xfffffffffffffff0,%rsp
  400ebd:	50                   	push   %rax
  400ebe:	54                   	push   %rsp
  400ebf:	49 c7 c0 50 2f 40 00 	mov    $0x402f50,%r8
  400ec6:	48 c7 c1 e0 2e 40 00 	mov    $0x402ee0,%rcx
  400ecd:	48 c7 c7 b5 11 40 00 	mov    $0x4011b5,%rdi
  400ed4:	e8 77 fe ff ff       	callq  400d50 <__libc_start_main@plt>
  400ed9:	f4                   	hlt    
  400eda:	66 0f 1f 44 00 00    	nopw   0x0(%rax,%rax,1)

0000000000400ee0 <deregister_tm_clones>:
  400ee0:	b8 b7 54 60 00       	mov    $0x6054b7,%eax
  400ee5:	55                   	push   %rbp
  400ee6:	48 2d b0 54 60 00    	sub    $0x6054b0,%rax
  400eec:	48 83 f8 0e          	cmp    $0xe,%rax
  400ef0:	48 89 e5             	mov    %rsp,%rbp
  400ef3:	76 1b                	jbe    400f10 <deregister_tm_clones+0x30>
  400ef5:	b8 00 00 00 00       	mov    $0x0,%eax
  400efa:	48 85 c0             	test   %rax,%rax
  400efd:	74 11                	je     400f10 <deregister_tm_clones+0x30>
  400eff:	5d                   	pop    %rbp
  400f00:	bf b0 54 60 00       	mov    $0x6054b0,%edi
  400f05:	ff e0                	jmpq   *%rax
  400f07:	66 0f 1f 84 00 00 00 	nopw   0x0(%rax,%rax,1)
  400f0e:	00 00 
  400f10:	5d                   	pop    %rbp
  400f11:	c3                   	retq   
  400f12:	0f 1f 40 00          	nopl   0x0(%rax)
  400f16:	66 2e 0f 1f 84 00 00 	nopw   %cs:0x0(%rax,%rax,1)
  400f1d:	00 00 00 

0000000000400f20 <register_tm_clones>:
  400f20:	be b0 54 60 00       	mov    $0x6054b0,%esi
  400f25:	55                   	push   %rbp
  400f26:	48 81 ee b0 54 60 00 	sub    $0x6054b0,%rsi
  400f2d:	48 c1 fe 03          	sar    $0x3,%rsi
  400f31:	48 89 e5             	mov    %rsp,%rbp
  400f34:	48 89 f0             	mov    %rsi,%rax
  400f37:	48 c1 e8 3f          	shr    $0x3f,%rax
  400f3b:	48 01 c6             	add    %rax,%rsi
  400f3e:	48 d1 fe             	sar    %rsi
  400f41:	74 15                	je     400f58 <register_tm_clones+0x38>
  400f43:	b8 00 00 00 00       	mov    $0x0,%eax
  400f48:	48 85 c0             	test   %rax,%rax
  400f4b:	74 0b                	je     400f58 <register_tm_clones+0x38>
  400f4d:	5d                   	pop    %rbp
  400f4e:	bf b0 54 60 00       	mov    $0x6054b0,%edi
  400f53:	ff e0                	jmpq   *%rax
  400f55:	0f 1f 00             	nopl   (%rax)
  400f58:	5d                   	pop    %rbp
  400f59:	c3                   	retq   
  400f5a:	66 0f 1f 44 00 00    	nopw   0x0(%rax,%rax,1)

0000000000400f60 <__do_global_dtors_aux>:
  400f60:	80 3d 81 45 20 00 00 	cmpb   $0x0,0x204581(%rip)        # 6054e8 <completed.7594>
  400f67:	75 11                	jne    400f7a <__do_global_dtors_aux+0x1a>
  400f69:	55                   	push   %rbp
  400f6a:	48 89 e5             	mov    %rsp,%rbp
  400f6d:	e8 6e ff ff ff       	callq  400ee0 <deregister_tm_clones>
  400f72:	5d                   	pop    %rbp
  400f73:	c6 05 6e 45 20 00 01 	movb   $0x1,0x20456e(%rip)        # 6054e8 <completed.7594>
  400f7a:	f3 c3                	repz retq 
  400f7c:	0f 1f 40 00          	nopl   0x0(%rax)

0000000000400f80 <frame_dummy>:
  400f80:	bf 20 4e 60 00       	mov    $0x604e20,%edi
  400f85:	48 83 3f 00          	cmpq   $0x0,(%rdi)
  400f89:	75 05                	jne    400f90 <frame_dummy+0x10>
  400f8b:	eb 93                	jmp    400f20 <register_tm_clones>
  400f8d:	0f 1f 00             	nopl   (%rax)
  400f90:	b8 00 00 00 00       	mov    $0x0,%eax
  400f95:	48 85 c0             	test   %rax,%rax
  400f98:	74 f1                	je     400f8b <frame_dummy+0xb>
  400f9a:	55                   	push   %rbp
  400f9b:	48 89 e5             	mov    %rsp,%rbp
  400f9e:	ff d0                	callq  *%rax
  400fa0:	5d                   	pop    %rbp
  400fa1:	e9 7a ff ff ff       	jmpq   400f20 <register_tm_clones>

0000000000400fa6 <usage>:
  400fa6:	48 83 ec 08          	sub    $0x8,%rsp
  400faa:	48 89 fa             	mov    %rdi,%rdx
  400fad:	83 3d 74 45 20 00 00 	cmpl   $0x0,0x204574(%rip)        # 605528 <is_checker>
  400fb4:	74 3e                	je     400ff4 <usage+0x4e>
  400fb6:	be 68 2f 40 00       	mov    $0x402f68,%esi
  400fbb:	bf 01 00 00 00       	mov    $0x1,%edi
  400fc0:	b8 00 00 00 00       	mov    $0x0,%eax
  400fc5:	e8 36 fe ff ff       	callq  400e00 <__printf_chk@plt>
  400fca:	bf a0 2f 40 00       	mov    $0x402fa0,%edi
  400fcf:	e8 fc fc ff ff       	callq  400cd0 <puts@plt>
  400fd4:	bf 18 31 40 00       	mov    $0x403118,%edi
  400fd9:	e8 f2 fc ff ff       	callq  400cd0 <puts@plt>
  400fde:	bf c8 2f 40 00       	mov    $0x402fc8,%edi
  400fe3:	e8 e8 fc ff ff       	callq  400cd0 <puts@plt>
  400fe8:	bf 32 31 40 00       	mov    $0x403132,%edi
  400fed:	e8 de fc ff ff       	callq  400cd0 <puts@plt>
  400ff2:	eb 32                	jmp    401026 <usage+0x80>
  400ff4:	be 4e 31 40 00       	mov    $0x40314e,%esi
  400ff9:	bf 01 00 00 00       	mov    $0x1,%edi
  400ffe:	b8 00 00 00 00       	mov    $0x0,%eax
  401003:	e8 f8 fd ff ff       	callq  400e00 <__printf_chk@plt>
  401008:	bf f0 2f 40 00       	mov    $0x402ff0,%edi
  40100d:	e8 be fc ff ff       	callq  400cd0 <puts@plt>
  401012:	bf 18 30 40 00       	mov    $0x403018,%edi
  401017:	e8 b4 fc ff ff       	callq  400cd0 <puts@plt>
  40101c:	bf 6c 31 40 00       	mov    $0x40316c,%edi
  401021:	e8 aa fc ff ff       	callq  400cd0 <puts@plt>
  401026:	bf 00 00 00 00       	mov    $0x0,%edi
  40102b:	e8 20 fe ff ff       	callq  400e50 <exit@plt>

0000000000401030 <initialize_target>:
  401030:	55                   	push   %rbp
  401031:	53                   	push   %rbx
  401032:	48 81 ec 18 21 00 00 	sub    $0x2118,%rsp
  401039:	89 f5                	mov    %esi,%ebp
  40103b:	64 48 8b 04 25 28 00 	mov    %fs:0x28,%rax
  401042:	00 00 
  401044:	48 89 84 24 08 21 00 	mov    %rax,0x2108(%rsp)
  40104b:	00 
  40104c:	31 c0                	xor    %eax,%eax
  40104e:	89 3d c4 44 20 00    	mov    %edi,0x2044c4(%rip)        # 605518 <check_level>
  401054:	8b 3d 0e 41 20 00    	mov    0x20410e(%rip),%edi        # 605168 <target_id>
  40105a:	e8 5e 1e 00 00       	callq  402ebd <gencookie>
  40105f:	89 05 bf 44 20 00    	mov    %eax,0x2044bf(%rip)        # 605524 <cookie>
  401065:	89 c7                	mov    %eax,%edi
  401067:	e8 51 1e 00 00       	callq  402ebd <gencookie>
  40106c:	89 05 ae 44 20 00    	mov    %eax,0x2044ae(%rip)        # 605520 <authkey>
  401072:	8b 05 f0 40 20 00    	mov    0x2040f0(%rip),%eax        # 605168 <target_id>
  401078:	8d 78 01             	lea    0x1(%rax),%edi
  40107b:	e8 20 fc ff ff       	callq  400ca0 <srandom@plt>
  401080:	e8 3b fd ff ff       	callq  400dc0 <random@plt>
  401085:	89 c7                	mov    %eax,%edi
  401087:	e8 03 03 00 00       	callq  40138f <scramble>
  40108c:	89 c3                	mov    %eax,%ebx
  40108e:	85 ed                	test   %ebp,%ebp
  401090:	74 18                	je     4010aa <initialize_target+0x7a>
  401092:	bf 00 00 00 00       	mov    $0x0,%edi
  401097:	e8 14 fd ff ff       	callq  400db0 <time@plt>
  40109c:	89 c7                	mov    %eax,%edi
  40109e:	e8 fd fb ff ff       	callq  400ca0 <srandom@plt>
  4010a3:	e8 18 fd ff ff       	callq  400dc0 <random@plt>
  4010a8:	eb 05                	jmp    4010af <initialize_target+0x7f>
  4010aa:	b8 00 00 00 00       	mov    $0x0,%eax
  4010af:	01 c3                	add    %eax,%ebx
  4010b1:	0f b7 db             	movzwl %bx,%ebx
  4010b4:	8d 04 dd 00 01 00 00 	lea    0x100(,%rbx,8),%eax
  4010bb:	89 c0                	mov    %eax,%eax
  4010bd:	48 89 05 dc 43 20 00 	mov    %rax,0x2043dc(%rip)        # 6054a0 <buf_offset>
  4010c4:	c6 05 7d 50 20 00 72 	movb   $0x72,0x20507d(%rip)        # 606148 <target_prefix>
  4010cb:	83 3d d6 43 20 00 00 	cmpl   $0x0,0x2043d6(%rip)        # 6054a8 <notify>
  4010d2:	0f 84 bb 00 00 00    	je     401193 <initialize_target+0x163>
  4010d8:	83 3d 49 44 20 00 00 	cmpl   $0x0,0x204449(%rip)        # 605528 <is_checker>
  4010df:	0f 85 ae 00 00 00    	jne    401193 <initialize_target+0x163>
  4010e5:	be 00 01 00 00       	mov    $0x100,%esi
  4010ea:	48 89 e7             	mov    %rsp,%rdi
  4010ed:	e8 4e fd ff ff       	callq  400e40 <gethostname@plt>
  4010f2:	85 c0                	test   %eax,%eax
  4010f4:	74 25                	je     40111b <initialize_target+0xeb>
  4010f6:	bf 48 30 40 00       	mov    $0x403048,%edi
  4010fb:	e8 d0 fb ff ff       	callq  400cd0 <puts@plt>
  401100:	bf 08 00 00 00       	mov    $0x8,%edi
  401105:	e8 46 fd ff ff       	callq  400e50 <exit@plt>
  40110a:	48 89 e6             	mov    %rsp,%rsi
  40110d:	e8 6e fb ff ff       	callq  400c80 <strcasecmp@plt>
  401112:	85 c0                	test   %eax,%eax
  401114:	74 21                	je     401137 <initialize_target+0x107>
  401116:	83 c3 01             	add    $0x1,%ebx
  401119:	eb 05                	jmp    401120 <initialize_target+0xf0>
  40111b:	bb 00 00 00 00       	mov    $0x0,%ebx
  401120:	48 63 c3             	movslq %ebx,%rax
  401123:	48 8b 3c c5 80 51 60 	mov    0x605180(,%rax,8),%rdi
  40112a:	00 
  40112b:	48 85 ff             	test   %rdi,%rdi
  40112e:	75 da                	jne    40110a <initialize_target+0xda>
  401130:	b8 00 00 00 00       	mov    $0x0,%eax
  401135:	eb 05                	jmp    40113c <initialize_target+0x10c>
  401137:	b8 01 00 00 00       	mov    $0x1,%eax
  40113c:	85 c0                	test   %eax,%eax
  40113e:	75 1c                	jne    40115c <initialize_target+0x12c>
  401140:	48 89 e2             	mov    %rsp,%rdx
  401143:	be 80 30 40 00       	mov    $0x403080,%esi
  401148:	bf 01 00 00 00       	mov    $0x1,%edi
  40114d:	e8 ae fc ff ff       	callq  400e00 <__printf_chk@plt>
  401152:	bf 08 00 00 00       	mov    $0x8,%edi
  401157:	e8 f4 fc ff ff       	callq  400e50 <exit@plt>
  40115c:	48 8d bc 24 00 01 00 	lea    0x100(%rsp),%rdi
  401163:	00 
  401164:	e8 be 1a 00 00       	callq  402c27 <init_driver>
  401169:	85 c0                	test   %eax,%eax
  40116b:	79 26                	jns    401193 <initialize_target+0x163>
  40116d:	48 8d 94 24 00 01 00 	lea    0x100(%rsp),%rdx
  401174:	00 
  401175:	be c0 30 40 00       	mov    $0x4030c0,%esi
  40117a:	bf 01 00 00 00       	mov    $0x1,%edi
  40117f:	b8 00 00 00 00       	mov    $0x0,%eax
  401184:	e8 77 fc ff ff       	callq  400e00 <__printf_chk@plt>
  401189:	bf 08 00 00 00       	mov    $0x8,%edi
  40118e:	e8 bd fc ff ff       	callq  400e50 <exit@plt>
  401193:	48 8b 84 24 08 21 00 	mov    0x2108(%rsp),%rax
  40119a:	00 
  40119b:	64 48 33 04 25 28 00 	xor    %fs:0x28,%rax
  4011a2:	00 00 
  4011a4:	74 05                	je     4011ab <initialize_target+0x17b>
  4011a6:	e8 45 fb ff ff       	callq  400cf0 <__stack_chk_fail@plt>
  4011ab:	48 81 c4 18 21 00 00 	add    $0x2118,%rsp
  4011b2:	5b                   	pop    %rbx
  4011b3:	5d                   	pop    %rbp
  4011b4:	c3                   	retq   

00000000004011b5 <main>:
  4011b5:	41 56                	push   %r14
  4011b7:	41 55                	push   %r13
  4011b9:	41 54                	push   %r12
  4011bb:	55                   	push   %rbp
  4011bc:	53                   	push   %rbx
  4011bd:	41 89 fc             	mov    %edi,%r12d
  4011c0:	48 89 f3             	mov    %rsi,%rbx
  4011c3:	be 62 1f 40 00       	mov    $0x401f62,%esi
  4011c8:	bf 0b 00 00 00       	mov    $0xb,%edi
  4011cd:	e8 8e fb ff ff       	callq  400d60 <signal@plt>
  4011d2:	be 14 1f 40 00       	mov    $0x401f14,%esi
  4011d7:	bf 07 00 00 00       	mov    $0x7,%edi
  4011dc:	e8 7f fb ff ff       	callq  400d60 <signal@plt>
  4011e1:	be b0 1f 40 00       	mov    $0x401fb0,%esi
  4011e6:	bf 04 00 00 00       	mov    $0x4,%edi
  4011eb:	e8 70 fb ff ff       	callq  400d60 <signal@plt>
  4011f0:	83 3d 31 43 20 00 00 	cmpl   $0x0,0x204331(%rip)        # 605528 <is_checker>
  4011f7:	74 20                	je     401219 <main+0x64>
  4011f9:	be fe 1f 40 00       	mov    $0x401ffe,%esi
  4011fe:	bf 0e 00 00 00       	mov    $0xe,%edi
  401203:	e8 58 fb ff ff       	callq  400d60 <signal@plt>
  401208:	bf 05 00 00 00       	mov    $0x5,%edi
  40120d:	e8 0e fb ff ff       	callq  400d20 <alarm@plt>
  401212:	bd 8a 31 40 00       	mov    $0x40318a,%ebp
  401217:	eb 05                	jmp    40121e <main+0x69>
  401219:	bd 85 31 40 00       	mov    $0x403185,%ebp
  40121e:	48 8b 05 9b 42 20 00 	mov    0x20429b(%rip),%rax        # 6054c0 <stdin@@GLIBC_2.2.5>
  401225:	48 89 05 e4 42 20 00 	mov    %rax,0x2042e4(%rip)        # 605510 <infile>
  40122c:	41 bd 00 00 00 00    	mov    $0x0,%r13d
  401232:	41 be 00 00 00 00    	mov    $0x0,%r14d
  401238:	e9 c6 00 00 00       	jmpq   401303 <main+0x14e>
  40123d:	83 e8 61             	sub    $0x61,%eax
  401240:	3c 10                	cmp    $0x10,%al
  401242:	0f 87 9c 00 00 00    	ja     4012e4 <main+0x12f>
  401248:	0f b6 c0             	movzbl %al,%eax
  40124b:	ff 24 c5 d0 31 40 00 	jmpq   *0x4031d0(,%rax,8)
  401252:	48 8b 3b             	mov    (%rbx),%rdi
  401255:	e8 4c fd ff ff       	callq  400fa6 <usage>
  40125a:	be 7d 35 40 00       	mov    $0x40357d,%esi
  40125f:	48 8b 3d 62 42 20 00 	mov    0x204262(%rip),%rdi        # 6054c8 <optarg@@GLIBC_2.2.5>
  401266:	e8 a5 fb ff ff       	callq  400e10 <fopen@plt>
  40126b:	48 89 05 9e 42 20 00 	mov    %rax,0x20429e(%rip)        # 605510 <infile>
  401272:	48 85 c0             	test   %rax,%rax
  401275:	0f 85 88 00 00 00    	jne    401303 <main+0x14e>
  40127b:	48 8b 0d 46 42 20 00 	mov    0x204246(%rip),%rcx        # 6054c8 <optarg@@GLIBC_2.2.5>
  401282:	ba 92 31 40 00       	mov    $0x403192,%edx
  401287:	be 01 00 00 00       	mov    $0x1,%esi
  40128c:	48 8b 3d 4d 42 20 00 	mov    0x20424d(%rip),%rdi        # 6054e0 <stderr@@GLIBC_2.2.5>
  401293:	e8 d8 fb ff ff       	callq  400e70 <__fprintf_chk@plt>
  401298:	b8 01 00 00 00       	mov    $0x1,%eax
  40129d:	e9 e4 00 00 00       	jmpq   401386 <main+0x1d1>
  4012a2:	ba 10 00 00 00       	mov    $0x10,%edx
  4012a7:	be 00 00 00 00       	mov    $0x0,%esi
  4012ac:	48 8b 3d 15 42 20 00 	mov    0x204215(%rip),%rdi        # 6054c8 <optarg@@GLIBC_2.2.5>
  4012b3:	e8 78 fb ff ff       	callq  400e30 <strtoul@plt>
  4012b8:	41 89 c6             	mov    %eax,%r14d
  4012bb:	eb 46                	jmp    401303 <main+0x14e>
  4012bd:	ba 0a 00 00 00       	mov    $0xa,%edx
  4012c2:	be 00 00 00 00       	mov    $0x0,%esi
  4012c7:	48 8b 3d fa 41 20 00 	mov    0x2041fa(%rip),%rdi        # 6054c8 <optarg@@GLIBC_2.2.5>
  4012ce:	e8 bd fa ff ff       	callq  400d90 <strtol@plt>
  4012d3:	41 89 c5             	mov    %eax,%r13d
  4012d6:	eb 2b                	jmp    401303 <main+0x14e>
  4012d8:	c7 05 c6 41 20 00 00 	movl   $0x0,0x2041c6(%rip)        # 6054a8 <notify>
  4012df:	00 00 00 
  4012e2:	eb 1f                	jmp    401303 <main+0x14e>
  4012e4:	0f be d2             	movsbl %dl,%edx
  4012e7:	be af 31 40 00       	mov    $0x4031af,%esi
  4012ec:	bf 01 00 00 00       	mov    $0x1,%edi
  4012f1:	b8 00 00 00 00       	mov    $0x0,%eax
  4012f6:	e8 05 fb ff ff       	callq  400e00 <__printf_chk@plt>
  4012fb:	48 8b 3b             	mov    (%rbx),%rdi
  4012fe:	e8 a3 fc ff ff       	callq  400fa6 <usage>
  401303:	48 89 ea             	mov    %rbp,%rdx
  401306:	48 89 de             	mov    %rbx,%rsi
  401309:	44 89 e7             	mov    %r12d,%edi
  40130c:	e8 0f fb ff ff       	callq  400e20 <getopt@plt>
  401311:	89 c2                	mov    %eax,%edx
  401313:	3c ff                	cmp    $0xff,%al
  401315:	0f 85 22 ff ff ff    	jne    40123d <main+0x88>
  40131b:	be 01 00 00 00       	mov    $0x1,%esi
  401320:	44 89 ef             	mov    %r13d,%edi
  401323:	e8 08 fd ff ff       	callq  401030 <initialize_target>
  401328:	83 3d f9 41 20 00 00 	cmpl   $0x0,0x2041f9(%rip)        # 605528 <is_checker>
  40132f:	74 2a                	je     40135b <main+0x1a6>
  401331:	44 3b 35 e8 41 20 00 	cmp    0x2041e8(%rip),%r14d        # 605520 <authkey>
  401338:	74 21                	je     40135b <main+0x1a6>
  40133a:	44 89 f2             	mov    %r14d,%edx
  40133d:	be e8 30 40 00       	mov    $0x4030e8,%esi
  401342:	bf 01 00 00 00       	mov    $0x1,%edi
  401347:	b8 00 00 00 00       	mov    $0x0,%eax
  40134c:	e8 af fa ff ff       	callq  400e00 <__printf_chk@plt>
  401351:	b8 00 00 00 00       	mov    $0x0,%eax
  401356:	e8 55 08 00 00       	callq  401bb0 <check_fail>
  40135b:	8b 15 c3 41 20 00    	mov    0x2041c3(%rip),%edx        # 605524 <cookie>
  401361:	be c2 31 40 00       	mov    $0x4031c2,%esi
  401366:	bf 01 00 00 00       	mov    $0x1,%edi
  40136b:	b8 00 00 00 00       	mov    $0x0,%eax
  401370:	e8 8b fa ff ff       	callq  400e00 <__printf_chk@plt>
  401375:	48 8b 3d 24 41 20 00 	mov    0x204124(%rip),%rdi        # 6054a0 <buf_offset>
  40137c:	e8 d0 0c 00 00       	callq  402051 <launch>
  401381:	b8 00 00 00 00       	mov    $0x0,%eax
  401386:	5b                   	pop    %rbx
  401387:	5d                   	pop    %rbp
  401388:	41 5c                	pop    %r12
  40138a:	41 5d                	pop    %r13
  40138c:	41 5e                	pop    %r14
  40138e:	c3                   	retq   

000000000040138f <scramble>:
  40138f:	48 83 ec 38          	sub    $0x38,%rsp
  401393:	64 48 8b 04 25 28 00 	mov    %fs:0x28,%rax
  40139a:	00 00 
  40139c:	48 89 44 24 28       	mov    %rax,0x28(%rsp)
  4013a1:	31 c0                	xor    %eax,%eax
  4013a3:	eb 10                	jmp    4013b5 <scramble+0x26>
  4013a5:	69 d0 ed 8a 00 00    	imul   $0x8aed,%eax,%edx
  4013ab:	01 fa                	add    %edi,%edx
  4013ad:	89 c1                	mov    %eax,%ecx
  4013af:	89 14 8c             	mov    %edx,(%rsp,%rcx,4)
  4013b2:	83 c0 01             	add    $0x1,%eax
  4013b5:	83 f8 09             	cmp    $0x9,%eax
  4013b8:	76 eb                	jbe    4013a5 <scramble+0x16>
  4013ba:	8b 44 24 24          	mov    0x24(%rsp),%eax
  4013be:	69 c0 d8 56 00 00    	imul   $0x56d8,%eax,%eax
  4013c4:	89 44 24 24          	mov    %eax,0x24(%rsp)
  4013c8:	8b 44 24 18          	mov    0x18(%rsp),%eax
  4013cc:	69 c0 f0 a4 00 00    	imul   $0xa4f0,%eax,%eax
  4013d2:	89 44 24 18          	mov    %eax,0x18(%rsp)
  4013d6:	8b 44 24 24          	mov    0x24(%rsp),%eax
  4013da:	69 c0 72 6a 00 00    	imul   $0x6a72,%eax,%eax
  4013e0:	89 44 24 24          	mov    %eax,0x24(%rsp)
  4013e4:	8b 44 24 18          	mov    0x18(%rsp),%eax
  4013e8:	69 c0 fa c6 00 00    	imul   $0xc6fa,%eax,%eax
  4013ee:	89 44 24 18          	mov    %eax,0x18(%rsp)
  4013f2:	8b 44 24 1c          	mov    0x1c(%rsp),%eax
  4013f6:	69 c0 27 b9 00 00    	imul   $0xb927,%eax,%eax
  4013fc:	89 44 24 1c          	mov    %eax,0x1c(%rsp)
  401400:	8b 44 24 1c          	mov    0x1c(%rsp),%eax
  401404:	69 c0 83 0d 00 00    	imul   $0xd83,%eax,%eax
  40140a:	89 44 24 1c          	mov    %eax,0x1c(%rsp)
  40140e:	8b 44 24 04          	mov    0x4(%rsp),%eax
  401412:	69 c0 4d b0 00 00    	imul   $0xb04d,%eax,%eax
  401418:	89 44 24 04          	mov    %eax,0x4(%rsp)
  40141c:	8b 44 24 24          	mov    0x24(%rsp),%eax
  401420:	69 c0 19 eb 00 00    	imul   $0xeb19,%eax,%eax
  401426:	89 44 24 24          	mov    %eax,0x24(%rsp)
  40142a:	8b 44 24 14          	mov    0x14(%rsp),%eax
  40142e:	69 c0 7c 3d 00 00    	imul   $0x3d7c,%eax,%eax
  401434:	89 44 24 14          	mov    %eax,0x14(%rsp)
  401438:	8b 54 24 24          	mov    0x24(%rsp),%edx
  40143c:	89 d0                	mov    %edx,%eax
  40143e:	c1 e0 0c             	shl    $0xc,%eax
  401441:	29 d0                	sub    %edx,%eax
  401443:	89 44 24 24          	mov    %eax,0x24(%rsp)
  401447:	8b 04 24             	mov    (%rsp),%eax
  40144a:	69 c0 4e ff 00 00    	imul   $0xff4e,%eax,%eax
  401450:	89 04 24             	mov    %eax,(%rsp)
  401453:	8b 44 24 24          	mov    0x24(%rsp),%eax
  401457:	69 c0 b4 8e 00 00    	imul   $0x8eb4,%eax,%eax
  40145d:	89 44 24 24          	mov    %eax,0x24(%rsp)
  401461:	8b 44 24 14          	mov    0x14(%rsp),%eax
  401465:	69 c0 59 ae 00 00    	imul   $0xae59,%eax,%eax
  40146b:	89 44 24 14          	mov    %eax,0x14(%rsp)
  40146f:	8b 44 24 24          	mov    0x24(%rsp),%eax
  401473:	69 c0 c7 26 00 00    	imul   $0x26c7,%eax,%eax
  401479:	89 44 24 24          	mov    %eax,0x24(%rsp)
  40147d:	8b 44 24 08          	mov    0x8(%rsp),%eax
  401481:	69 c0 9b e4 00 00    	imul   $0xe49b,%eax,%eax
  401487:	89 44 24 08          	mov    %eax,0x8(%rsp)
  40148b:	8b 44 24 08          	mov    0x8(%rsp),%eax
  40148f:	69 c0 b0 b0 00 00    	imul   $0xb0b0,%eax,%eax
  401495:	89 44 24 08          	mov    %eax,0x8(%rsp)
  401499:	8b 44 24 20          	mov    0x20(%rsp),%eax
  40149d:	69 c0 59 34 00 00    	imul   $0x3459,%eax,%eax
  4014a3:	89 44 24 20          	mov    %eax,0x20(%rsp)
  4014a7:	8b 44 24 24          	mov    0x24(%rsp),%eax
  4014ab:	69 c0 56 c2 00 00    	imul   $0xc256,%eax,%eax
  4014b1:	89 44 24 24          	mov    %eax,0x24(%rsp)
  4014b5:	8b 44 24 10          	mov    0x10(%rsp),%eax
  4014b9:	69 c0 e1 67 00 00    	imul   $0x67e1,%eax,%eax
  4014bf:	89 44 24 10          	mov    %eax,0x10(%rsp)
  4014c3:	8b 44 24 0c          	mov    0xc(%rsp),%eax
  4014c7:	69 c0 41 83 00 00    	imul   $0x8341,%eax,%eax
  4014cd:	89 44 24 0c          	mov    %eax,0xc(%rsp)
  4014d1:	8b 04 24             	mov    (%rsp),%eax
  4014d4:	69 c0 4b 20 00 00    	imul   $0x204b,%eax,%eax
  4014da:	89 04 24             	mov    %eax,(%rsp)
  4014dd:	8b 44 24 04          	mov    0x4(%rsp),%eax
  4014e1:	69 c0 f2 3a 00 00    	imul   $0x3af2,%eax,%eax
  4014e7:	89 44 24 04          	mov    %eax,0x4(%rsp)
  4014eb:	8b 44 24 24          	mov    0x24(%rsp),%eax
  4014ef:	69 c0 79 32 00 00    	imul   $0x3279,%eax,%eax
  4014f5:	89 44 24 24          	mov    %eax,0x24(%rsp)
  4014f9:	8b 44 24 04          	mov    0x4(%rsp),%eax
  4014fd:	69 c0 64 fe 00 00    	imul   $0xfe64,%eax,%eax
  401503:	89 44 24 04          	mov    %eax,0x4(%rsp)
  401507:	8b 44 24 04          	mov    0x4(%rsp),%eax
  40150b:	69 c0 d1 10 00 00    	imul   $0x10d1,%eax,%eax
  401511:	89 44 24 04          	mov    %eax,0x4(%rsp)
  401515:	8b 44 24 1c          	mov    0x1c(%rsp),%eax
  401519:	69 c0 16 f3 00 00    	imul   $0xf316,%eax,%eax
  40151f:	89 44 24 1c          	mov    %eax,0x1c(%rsp)
  401523:	8b 44 24 24          	mov    0x24(%rsp),%eax
  401527:	69 c0 ef 04 00 00    	imul   $0x4ef,%eax,%eax
  40152d:	89 44 24 24          	mov    %eax,0x24(%rsp)
  401531:	8b 44 24 18          	mov    0x18(%rsp),%eax
  401535:	69 c0 1c d5 00 00    	imul   $0xd51c,%eax,%eax
  40153b:	89 44 24 18          	mov    %eax,0x18(%rsp)
  40153f:	8b 44 24 04          	mov    0x4(%rsp),%eax
  401543:	89 c2                	mov    %eax,%edx
  401545:	c1 e2 0e             	shl    $0xe,%edx
  401548:	8d 04 42             	lea    (%rdx,%rax,2),%eax
  40154b:	89 44 24 04          	mov    %eax,0x4(%rsp)
  40154f:	8b 44 24 20          	mov    0x20(%rsp),%eax
  401553:	69 c0 0b d9 00 00    	imul   $0xd90b,%eax,%eax
  401559:	89 44 24 20          	mov    %eax,0x20(%rsp)
  40155d:	8b 44 24 08          	mov    0x8(%rsp),%eax
  401561:	69 c0 ef 21 00 00    	imul   $0x21ef,%eax,%eax
  401567:	89 44 24 08          	mov    %eax,0x8(%rsp)
  40156b:	8b 44 24 20          	mov    0x20(%rsp),%eax
  40156f:	69 c0 12 60 00 00    	imul   $0x6012,%eax,%eax
  401575:	89 44 24 20          	mov    %eax,0x20(%rsp)
  401579:	8b 04 24             	mov    (%rsp),%eax
  40157c:	69 c0 5c df 00 00    	imul   $0xdf5c,%eax,%eax
  401582:	89 04 24             	mov    %eax,(%rsp)
  401585:	8b 44 24 08          	mov    0x8(%rsp),%eax
  401589:	69 c0 13 f5 00 00    	imul   $0xf513,%eax,%eax
  40158f:	89 44 24 08          	mov    %eax,0x8(%rsp)
  401593:	8b 44 24 1c          	mov    0x1c(%rsp),%eax
  401597:	69 c0 b8 ab 00 00    	imul   $0xabb8,%eax,%eax
  40159d:	89 44 24 1c          	mov    %eax,0x1c(%rsp)
  4015a1:	8b 44 24 1c          	mov    0x1c(%rsp),%eax
  4015a5:	69 c0 47 68 00 00    	imul   $0x6847,%eax,%eax
  4015ab:	89 44 24 1c          	mov    %eax,0x1c(%rsp)
  4015af:	8b 44 24 1c          	mov    0x1c(%rsp),%eax
  4015b3:	69 c0 19 09 00 00    	imul   $0x919,%eax,%eax
  4015b9:	89 44 24 1c          	mov    %eax,0x1c(%rsp)
  4015bd:	8b 44 24 0c          	mov    0xc(%rsp),%eax
  4015c1:	69 c0 9c 9c 00 00    	imul   $0x9c9c,%eax,%eax
  4015c7:	89 44 24 0c          	mov    %eax,0xc(%rsp)
  4015cb:	8b 04 24             	mov    (%rsp),%eax
  4015ce:	69 c0 45 c9 00 00    	imul   $0xc945,%eax,%eax
  4015d4:	89 04 24             	mov    %eax,(%rsp)
  4015d7:	8b 44 24 18          	mov    0x18(%rsp),%eax
  4015db:	69 c0 88 ab 00 00    	imul   $0xab88,%eax,%eax
  4015e1:	89 44 24 18          	mov    %eax,0x18(%rsp)
  4015e5:	8b 44 24 24          	mov    0x24(%rsp),%eax
  4015e9:	69 c0 63 a9 00 00    	imul   $0xa963,%eax,%eax
  4015ef:	89 44 24 24          	mov    %eax,0x24(%rsp)
  4015f3:	8b 44 24 18          	mov    0x18(%rsp),%eax
  4015f7:	69 c0 35 ea 00 00    	imul   $0xea35,%eax,%eax
  4015fd:	89 44 24 18          	mov    %eax,0x18(%rsp)
  401601:	8b 44 24 0c          	mov    0xc(%rsp),%eax
  401605:	69 c0 6a 20 00 00    	imul   $0x206a,%eax,%eax
  40160b:	89 44 24 0c          	mov    %eax,0xc(%rsp)
  40160f:	8b 44 24 18          	mov    0x18(%rsp),%eax
  401613:	69 c0 9b 61 00 00    	imul   $0x619b,%eax,%eax
  401619:	89 44 24 18          	mov    %eax,0x18(%rsp)
  40161d:	8b 44 24 08          	mov    0x8(%rsp),%eax
  401621:	69 c0 34 bb 00 00    	imul   $0xbb34,%eax,%eax
  401627:	89 44 24 08          	mov    %eax,0x8(%rsp)
  40162b:	8b 44 24 04          	mov    0x4(%rsp),%eax
  40162f:	69 c0 0a 85 00 00    	imul   $0x850a,%eax,%eax
  401635:	89 44 24 04          	mov    %eax,0x4(%rsp)
  401639:	8b 44 24 18          	mov    0x18(%rsp),%eax
  40163d:	69 c0 62 c4 00 00    	imul   $0xc462,%eax,%eax
  401643:	89 44 24 18          	mov    %eax,0x18(%rsp)
  401647:	8b 44 24 14          	mov    0x14(%rsp),%eax
  40164b:	69 c0 6b 33 00 00    	imul   $0x336b,%eax,%eax
  401651:	89 44 24 14          	mov    %eax,0x14(%rsp)
  401655:	8b 04 24             	mov    (%rsp),%eax
  401658:	69 c0 84 07 00 00    	imul   $0x784,%eax,%eax
  40165e:	89 04 24             	mov    %eax,(%rsp)
  401661:	8b 44 24 08          	mov    0x8(%rsp),%eax
  401665:	69 c0 fd ea 00 00    	imul   $0xeafd,%eax,%eax
  40166b:	89 44 24 08          	mov    %eax,0x8(%rsp)
  40166f:	8b 44 24 10          	mov    0x10(%rsp),%eax
  401673:	69 c0 d3 a0 00 00    	imul   $0xa0d3,%eax,%eax
  401679:	89 44 24 10          	mov    %eax,0x10(%rsp)
  40167d:	8b 44 24 24          	mov    0x24(%rsp),%eax
  401681:	69 c0 40 7f 00 00    	imul   $0x7f40,%eax,%eax
  401687:	89 44 24 24          	mov    %eax,0x24(%rsp)
  40168b:	8b 44 24 08          	mov    0x8(%rsp),%eax
  40168f:	69 c0 7d f6 00 00    	imul   $0xf67d,%eax,%eax
  401695:	89 44 24 08          	mov    %eax,0x8(%rsp)
  401699:	8b 04 24             	mov    (%rsp),%eax
  40169c:	69 c0 80 e5 00 00    	imul   $0xe580,%eax,%eax
  4016a2:	89 04 24             	mov    %eax,(%rsp)
  4016a5:	8b 44 24 20          	mov    0x20(%rsp),%eax
  4016a9:	69 c0 dd b6 00 00    	imul   $0xb6dd,%eax,%eax
  4016af:	89 44 24 20          	mov    %eax,0x20(%rsp)
  4016b3:	8b 44 24 20          	mov    0x20(%rsp),%eax
  4016b7:	69 c0 d8 99 00 00    	imul   $0x99d8,%eax,%eax
  4016bd:	89 44 24 20          	mov    %eax,0x20(%rsp)
  4016c1:	8b 44 24 04          	mov    0x4(%rsp),%eax
  4016c5:	69 c0 a7 2f 00 00    	imul   $0x2fa7,%eax,%eax
  4016cb:	89 44 24 04          	mov    %eax,0x4(%rsp)
  4016cf:	8b 44 24 1c          	mov    0x1c(%rsp),%eax
  4016d3:	69 c0 93 0e 00 00    	imul   $0xe93,%eax,%eax
  4016d9:	89 44 24 1c          	mov    %eax,0x1c(%rsp)
  4016dd:	8b 04 24             	mov    (%rsp),%eax
  4016e0:	69 c0 5e 43 00 00    	imul   $0x435e,%eax,%eax
  4016e6:	89 04 24             	mov    %eax,(%rsp)
  4016e9:	8b 44 24 08          	mov    0x8(%rsp),%eax
  4016ed:	69 c0 7e b0 00 00    	imul   $0xb07e,%eax,%eax
  4016f3:	89 44 24 08          	mov    %eax,0x8(%rsp)
  4016f7:	8b 04 24             	mov    (%rsp),%eax
  4016fa:	69 c0 d4 aa 00 00    	imul   $0xaad4,%eax,%eax
  401700:	89 04 24             	mov    %eax,(%rsp)
  401703:	8b 44 24 1c          	mov    0x1c(%rsp),%eax
  401707:	69 c0 b5 db 00 00    	imul   $0xdbb5,%eax,%eax
  40170d:	89 44 24 1c          	mov    %eax,0x1c(%rsp)
  401711:	8b 44 24 10          	mov    0x10(%rsp),%eax
  401715:	69 c0 a5 1a 00 00    	imul   $0x1aa5,%eax,%eax
  40171b:	89 44 24 10          	mov    %eax,0x10(%rsp)
  40171f:	8b 44 24 1c          	mov    0x1c(%rsp),%eax
  401723:	69 c0 f6 12 00 00    	imul   $0x12f6,%eax,%eax
  401729:	89 44 24 1c          	mov    %eax,0x1c(%rsp)
  40172d:	8b 44 24 0c          	mov    0xc(%rsp),%eax
  401731:	69 c0 9f 37 00 00    	imul   $0x379f,%eax,%eax
  401737:	89 44 24 0c          	mov    %eax,0xc(%rsp)
  40173b:	8b 44 24 18          	mov    0x18(%rsp),%eax
  40173f:	69 c0 66 d5 00 00    	imul   $0xd566,%eax,%eax
  401745:	89 44 24 18          	mov    %eax,0x18(%rsp)
  401749:	8b 44 24 18          	mov    0x18(%rsp),%eax
  40174d:	69 c0 37 51 00 00    	imul   $0x5137,%eax,%eax
  401753:	89 44 24 18          	mov    %eax,0x18(%rsp)
  401757:	8b 04 24             	mov    (%rsp),%eax
  40175a:	69 c0 5f 82 00 00    	imul   $0x825f,%eax,%eax
  401760:	89 04 24             	mov    %eax,(%rsp)
  401763:	8b 44 24 1c          	mov    0x1c(%rsp),%eax
  401767:	69 c0 82 70 00 00    	imul   $0x7082,%eax,%eax
  40176d:	89 44 24 1c          	mov    %eax,0x1c(%rsp)
  401771:	8b 44 24 14          	mov    0x14(%rsp),%eax
  401775:	69 c0 77 07 00 00    	imul   $0x777,%eax,%eax
  40177b:	89 44 24 14          	mov    %eax,0x14(%rsp)
  40177f:	8b 44 24 04          	mov    0x4(%rsp),%eax
  401783:	69 c0 e8 f8 00 00    	imul   $0xf8e8,%eax,%eax
  401789:	89 44 24 04          	mov    %eax,0x4(%rsp)
  40178d:	8b 44 24 14          	mov    0x14(%rsp),%eax
  401791:	69 c0 a0 87 00 00    	imul   $0x87a0,%eax,%eax
  401797:	89 44 24 14          	mov    %eax,0x14(%rsp)
  40179b:	8b 44 24 04          	mov    0x4(%rsp),%eax
  40179f:	69 c0 5d 25 00 00    	imul   $0x255d,%eax,%eax
  4017a5:	89 44 24 04          	mov    %eax,0x4(%rsp)
  4017a9:	8b 44 24 24          	mov    0x24(%rsp),%eax
  4017ad:	69 c0 a1 78 00 00    	imul   $0x78a1,%eax,%eax
  4017b3:	89 44 24 24          	mov    %eax,0x24(%rsp)
  4017b7:	8b 44 24 24          	mov    0x24(%rsp),%eax
  4017bb:	69 c0 61 06 00 00    	imul   $0x661,%eax,%eax
  4017c1:	89 44 24 24          	mov    %eax,0x24(%rsp)
  4017c5:	8b 44 24 1c          	mov    0x1c(%rsp),%eax
  4017c9:	69 c0 4e 67 00 00    	imul   $0x674e,%eax,%eax
  4017cf:	89 44 24 1c          	mov    %eax,0x1c(%rsp)
  4017d3:	8b 44 24 1c          	mov    0x1c(%rsp),%eax
  4017d7:	69 c0 a7 5e 00 00    	imul   $0x5ea7,%eax,%eax
  4017dd:	89 44 24 1c          	mov    %eax,0x1c(%rsp)
  4017e1:	8b 04 24             	mov    (%rsp),%eax
  4017e4:	69 c0 6c 20 00 00    	imul   $0x206c,%eax,%eax
  4017ea:	89 04 24             	mov    %eax,(%rsp)
  4017ed:	8b 04 24             	mov    (%rsp),%eax
  4017f0:	69 c0 24 52 00 00    	imul   $0x5224,%eax,%eax
  4017f6:	89 04 24             	mov    %eax,(%rsp)
  4017f9:	8b 44 24 04          	mov    0x4(%rsp),%eax
  4017fd:	69 c0 76 9b 00 00    	imul   $0x9b76,%eax,%eax
  401803:	89 44 24 04          	mov    %eax,0x4(%rsp)
  401807:	ba 00 00 00 00       	mov    $0x0,%edx
  40180c:	b8 00 00 00 00       	mov    $0x0,%eax
  401811:	eb 0a                	jmp    40181d <scramble+0x48e>
  401813:	89 d1                	mov    %edx,%ecx
  401815:	8b 0c 8c             	mov    (%rsp,%rcx,4),%ecx
  401818:	01 c8                	add    %ecx,%eax
  40181a:	83 c2 01             	add    $0x1,%edx
  40181d:	83 fa 09             	cmp    $0x9,%edx
  401820:	76 f1                	jbe    401813 <scramble+0x484>
  401822:	48 8b 74 24 28       	mov    0x28(%rsp),%rsi
  401827:	64 48 33 34 25 28 00 	xor    %fs:0x28,%rsi
  40182e:	00 00 
  401830:	74 05                	je     401837 <scramble+0x4a8>
  401832:	e8 b9 f4 ff ff       	callq  400cf0 <__stack_chk_fail@plt>
  401837:	48 83 c4 38          	add    $0x38,%rsp
  40183b:	c3                   	retq   

000000000040183c <getbuf>:
  40183c:	48 83 ec 18          	sub    $0x18,%rsp
  401840:	48 89 e7             	mov    %rsp,%rdi
  401843:	e8 9d 03 00 00       	callq  401be5 <Gets>
  401848:	b8 01 00 00 00       	mov    $0x1,%eax
  40184d:	48 83 c4 18          	add    $0x18,%rsp
  401851:	c3                   	retq   

0000000000401852 <touch1>:
  401852:	48 83 ec 08          	sub    $0x8,%rsp
  401856:	c7 05 bc 3c 20 00 01 	movl   $0x1,0x203cbc(%rip)        # 60551c <vlevel>
  40185d:	00 00 00 
  401860:	bf d2 33 40 00       	mov    $0x4033d2,%edi
  401865:	e8 66 f4 ff ff       	callq  400cd0 <puts@plt>
  40186a:	bf 01 00 00 00       	mov    $0x1,%edi
  40186f:	e8 b6 05 00 00       	callq  401e2a <validate>
  401874:	bf 00 00 00 00       	mov    $0x0,%edi
  401879:	e8 d2 f5 ff ff       	callq  400e50 <exit@plt>

000000000040187e <touch2>:
  40187e:	48 83 ec 08          	sub    $0x8,%rsp
  401882:	89 fa                	mov    %edi,%edx
  401884:	c7 05 8e 3c 20 00 02 	movl   $0x2,0x203c8e(%rip)        # 60551c <vlevel>
  40188b:	00 00 00 
  40188e:	39 3d 90 3c 20 00    	cmp    %edi,0x203c90(%rip)        # 605524 <cookie>
  401894:	75 20                	jne    4018b6 <touch2+0x38>
  401896:	be f8 33 40 00       	mov    $0x4033f8,%esi
  40189b:	bf 01 00 00 00       	mov    $0x1,%edi
  4018a0:	b8 00 00 00 00       	mov    $0x0,%eax
  4018a5:	e8 56 f5 ff ff       	callq  400e00 <__printf_chk@plt>
  4018aa:	bf 02 00 00 00       	mov    $0x2,%edi
  4018af:	e8 76 05 00 00       	callq  401e2a <validate>
  4018b4:	eb 1e                	jmp    4018d4 <touch2+0x56>
  4018b6:	be 20 34 40 00       	mov    $0x403420,%esi
  4018bb:	bf 01 00 00 00       	mov    $0x1,%edi
  4018c0:	b8 00 00 00 00       	mov    $0x0,%eax
  4018c5:	e8 36 f5 ff ff       	callq  400e00 <__printf_chk@plt>
  4018ca:	bf 02 00 00 00       	mov    $0x2,%edi
  4018cf:	e8 18 06 00 00       	callq  401eec <fail>
  4018d4:	bf 00 00 00 00       	mov    $0x0,%edi
  4018d9:	e8 72 f5 ff ff       	callq  400e50 <exit@plt>

00000000004018de <hexmatch>:
  4018de:	41 54                	push   %r12
  4018e0:	55                   	push   %rbp
  4018e1:	53                   	push   %rbx
  4018e2:	48 83 c4 80          	add    $0xffffffffffffff80,%rsp
  4018e6:	89 fd                	mov    %edi,%ebp
  4018e8:	48 89 f3             	mov    %rsi,%rbx
  4018eb:	64 48 8b 04 25 28 00 	mov    %fs:0x28,%rax
  4018f2:	00 00 
  4018f4:	48 89 44 24 78       	mov    %rax,0x78(%rsp)
  4018f9:	31 c0                	xor    %eax,%eax
  4018fb:	e8 c0 f4 ff ff       	callq  400dc0 <random@plt>
  401900:	48 89 c1             	mov    %rax,%rcx
  401903:	48 ba 0b d7 a3 70 3d 	movabs $0xa3d70a3d70a3d70b,%rdx
  40190a:	0a d7 a3 
  40190d:	48 f7 ea             	imul   %rdx
  401910:	48 01 ca             	add    %rcx,%rdx
  401913:	48 c1 fa 06          	sar    $0x6,%rdx
  401917:	48 89 c8             	mov    %rcx,%rax
  40191a:	48 c1 f8 3f          	sar    $0x3f,%rax
  40191e:	48 29 c2             	sub    %rax,%rdx
  401921:	48 8d 04 92          	lea    (%rdx,%rdx,4),%rax
  401925:	48 8d 14 80          	lea    (%rax,%rax,4),%rdx
  401929:	48 8d 04 95 00 00 00 	lea    0x0(,%rdx,4),%rax
  401930:	00 
  401931:	48 29 c1             	sub    %rax,%rcx
  401934:	4c 8d 24 0c          	lea    (%rsp,%rcx,1),%r12
  401938:	41 89 e8             	mov    %ebp,%r8d
  40193b:	b9 ef 33 40 00       	mov    $0x4033ef,%ecx
  401940:	48 c7 c2 ff ff ff ff 	mov    $0xffffffffffffffff,%rdx
  401947:	be 01 00 00 00       	mov    $0x1,%esi
  40194c:	4c 89 e7             	mov    %r12,%rdi
  40194f:	b8 00 00 00 00       	mov    $0x0,%eax
  401954:	e8 27 f5 ff ff       	callq  400e80 <__sprintf_chk@plt>
  401959:	ba 09 00 00 00       	mov    $0x9,%edx
  40195e:	4c 89 e6             	mov    %r12,%rsi
  401961:	48 89 df             	mov    %rbx,%rdi
  401964:	e8 47 f3 ff ff       	callq  400cb0 <strncmp@plt>
  401969:	85 c0                	test   %eax,%eax
  40196b:	0f 94 c0             	sete   %al
  40196e:	48 8b 5c 24 78       	mov    0x78(%rsp),%rbx
  401973:	64 48 33 1c 25 28 00 	xor    %fs:0x28,%rbx
  40197a:	00 00 
  40197c:	74 05                	je     401983 <hexmatch+0xa5>
  40197e:	e8 6d f3 ff ff       	callq  400cf0 <__stack_chk_fail@plt>
  401983:	0f b6 c0             	movzbl %al,%eax
  401986:	48 83 ec 80          	sub    $0xffffffffffffff80,%rsp
  40198a:	5b                   	pop    %rbx
  40198b:	5d                   	pop    %rbp
  40198c:	41 5c                	pop    %r12
  40198e:	c3                   	retq   

000000000040198f <touch3>:
  40198f:	53                   	push   %rbx
  401990:	48 89 fb             	mov    %rdi,%rbx
  401993:	c7 05 7f 3b 20 00 03 	movl   $0x3,0x203b7f(%rip)        # 60551c <vlevel>
  40199a:	00 00 00 
  40199d:	48 89 fe             	mov    %rdi,%rsi
  4019a0:	8b 3d 7e 3b 20 00    	mov    0x203b7e(%rip),%edi        # 605524 <cookie>
  4019a6:	e8 33 ff ff ff       	callq  4018de <hexmatch>
  4019ab:	85 c0                	test   %eax,%eax
  4019ad:	74 23                	je     4019d2 <touch3+0x43>
  4019af:	48 89 da             	mov    %rbx,%rdx
  4019b2:	be 48 34 40 00       	mov    $0x403448,%esi
  4019b7:	bf 01 00 00 00       	mov    $0x1,%edi
  4019bc:	b8 00 00 00 00       	mov    $0x0,%eax
  4019c1:	e8 3a f4 ff ff       	callq  400e00 <__printf_chk@plt>
  4019c6:	bf 03 00 00 00       	mov    $0x3,%edi
  4019cb:	e8 5a 04 00 00       	callq  401e2a <validate>
  4019d0:	eb 21                	jmp    4019f3 <touch3+0x64>
  4019d2:	48 89 da             	mov    %rbx,%rdx
  4019d5:	be 70 34 40 00       	mov    $0x403470,%esi
  4019da:	bf 01 00 00 00       	mov    $0x1,%edi
  4019df:	b8 00 00 00 00       	mov    $0x0,%eax
  4019e4:	e8 17 f4 ff ff       	callq  400e00 <__printf_chk@plt>
  4019e9:	bf 03 00 00 00       	mov    $0x3,%edi
  4019ee:	e8 f9 04 00 00       	callq  401eec <fail>
  4019f3:	bf 00 00 00 00       	mov    $0x0,%edi
  4019f8:	e8 53 f4 ff ff       	callq  400e50 <exit@plt>

00000000004019fd <test>:
  4019fd:	48 83 ec 08          	sub    $0x8,%rsp
  401a01:	b8 00 00 00 00       	mov    $0x0,%eax
  401a06:	e8 31 fe ff ff       	callq  40183c <getbuf>
  401a0b:	89 c2                	mov    %eax,%edx
  401a0d:	be 98 34 40 00       	mov    $0x403498,%esi
  401a12:	bf 01 00 00 00       	mov    $0x1,%edi
  401a17:	b8 00 00 00 00       	mov    $0x0,%eax
  401a1c:	e8 df f3 ff ff       	callq  400e00 <__printf_chk@plt>
  401a21:	48 83 c4 08          	add    $0x8,%rsp
  401a25:	c3                   	retq   

0000000000401a26 <start_farm>:
  401a26:	b8 01 00 00 00       	mov    $0x1,%eax
  401a2b:	c3                   	retq   

0000000000401a2c <addval_375>:
  401a2c:	8d 87 48 89 c7 c7    	lea    -0x383876b8(%rdi),%eax
  401a32:	c3                   	retq   

0000000000401a33 <getval_382>:
  401a33:	b8 58 90 90 90       	mov    $0x90909058,%eax
  401a38:	c3                   	retq   

0000000000401a39 <addval_224>:
  401a39:	8d 87 80 50 0e 50    	lea    0x500e5080(%rdi),%eax
  401a3f:	c3                   	retq   

0000000000401a40 <setval_174>:
  401a40:	c7 07 3f 58 c3 19    	movl   $0x19c3583f,(%rdi)
  401a46:	c3                   	retq   

0000000000401a47 <getval_426>:
  401a47:	b8 48 89 c7 c3       	mov    $0xc3c78948,%eax
  401a4c:	c3                   	retq   

0000000000401a4d <addval_400>:
  401a4d:	8d 87 4c 58 92 c3    	lea    -0x3c6da7b4(%rdi),%eax
  401a53:	c3                   	retq   

0000000000401a54 <addval_262>:
  401a54:	8d 87 d6 48 89 c7    	lea    -0x3876b72a(%rdi),%eax
  401a5a:	c3                   	retq   

0000000000401a5b <getval_440>:
  401a5b:	b8 48 89 c7 94       	mov    $0x94c78948,%eax
  401a60:	c3                   	retq   

0000000000401a61 <mid_farm>:
  401a61:	b8 01 00 00 00       	mov    $0x1,%eax
  401a66:	c3                   	retq   

0000000000401a67 <add_xy>:
  401a67:	48 8d 04 37          	lea    (%rdi,%rsi,1),%rax
  401a6b:	c3                   	retq   

0000000000401a6c <getval_104>:
  401a6c:	b8 89 d6 94 90       	mov    $0x9094d689,%eax
  401a71:	c3                   	retq   

0000000000401a72 <setval_289>:
  401a72:	c7 07 89 ca 38 d2    	movl   $0xd238ca89,(%rdi)
  401a78:	c3                   	retq   

0000000000401a79 <addval_155>:
  401a79:	8d 87 c9 d6 c3 43    	lea    0x43c3d6c9(%rdi),%eax
  401a7f:	c3                   	retq   

0000000000401a80 <getval_338>:
  401a80:	b8 88 ca c3 28       	mov    $0x28c3ca88,%eax
  401a85:	c3                   	retq   

0000000000401a86 <getval_259>:
  401a86:	b8 89 ca 90 c3       	mov    $0xc390ca89,%eax
  401a8b:	c3                   	retq   

0000000000401a8c <setval_343>:
  401a8c:	c7 07 81 ca 08 d2    	movl   $0xd208ca81,(%rdi)
  401a92:	c3                   	retq   

0000000000401a93 <addval_163>:
  401a93:	8d 87 a9 c1 90 90    	lea    -0x6f6f3e57(%rdi),%eax
  401a99:	c3                   	retq   

0000000000401a9a <getval_484>:
  401a9a:	b8 48 89 e0 91       	mov    $0x91e08948,%eax
  401a9f:	c3                   	retq   

0000000000401aa0 <addval_394>:
  401aa0:	8d 87 09 ca 38 db    	lea    -0x24c735f7(%rdi),%eax
  401aa6:	c3                   	retq   

0000000000401aa7 <addval_249>:
  401aa7:	8d 87 48 89 e0 91    	lea    -0x6e1f76b8(%rdi),%eax
  401aad:	c3                   	retq   

0000000000401aae <getval_470>:
  401aae:	b8 33 48 89 e0       	mov    $0xe0894833,%eax
  401ab3:	c3                   	retq   

0000000000401ab4 <getval_391>:
  401ab4:	b8 8d d6 08 d2       	mov    $0xd208d68d,%eax
  401ab9:	c3                   	retq   

0000000000401aba <setval_415>:
  401aba:	c7 07 89 ca 18 c9    	movl   $0xc918ca89,(%rdi)
  401ac0:	c3                   	retq   

0000000000401ac1 <getval_398>:
  401ac1:	b8 48 89 e0 94       	mov    $0x94e08948,%eax
  401ac6:	c3                   	retq   

0000000000401ac7 <setval_119>:
  401ac7:	c7 07 89 ca 48 db    	movl   $0xdb48ca89,(%rdi)
  401acd:	c3                   	retq   

0000000000401ace <getval_123>:
  401ace:	b8 8d d6 08 c9       	mov    $0xc908d68d,%eax
  401ad3:	c3                   	retq   

0000000000401ad4 <getval_127>:
  401ad4:	b8 8b d6 08 c0       	mov    $0xc008d68b,%eax
  401ad9:	c3                   	retq   

0000000000401ada <setval_275>:
  401ada:	c7 07 92 89 c1 90    	movl   $0x90c18992,(%rdi)
  401ae0:	c3                   	retq   

0000000000401ae1 <setval_218>:
  401ae1:	c7 07 41 48 89 e0    	movl   $0xe0894841,(%rdi)
  401ae7:	c3                   	retq   

0000000000401ae8 <getval_183>:
  401ae8:	b8 48 89 e0 91       	mov    $0x91e08948,%eax
  401aed:	c3                   	retq   

0000000000401aee <getval_241>:
  401aee:	b8 89 c1 48 db       	mov    $0xdb48c189,%eax
  401af3:	c3                   	retq   

0000000000401af4 <addval_177>:
  401af4:	8d 87 89 d6 c4 c0    	lea    -0x3f3b2977(%rdi),%eax
  401afa:	c3                   	retq   

0000000000401afb <addval_468>:
  401afb:	8d 87 89 c1 20 d2    	lea    -0x2ddf3e77(%rdi),%eax
  401b01:	c3                   	retq   

0000000000401b02 <setval_411>:
  401b02:	c7 07 5b f8 a9 ca    	movl   $0xcaa9f85b,(%rdi)
  401b08:	c3                   	retq   

0000000000401b09 <getval_451>:
  401b09:	b8 ee 48 c9 e0       	mov    $0xe0c948ee,%eax
  401b0e:	c3                   	retq   

0000000000401b0f <addval_209>:
  401b0f:	8d 87 89 c1 30 db    	lea    -0x24cf3e77(%rdi),%eax
  401b15:	c3                   	retq   

0000000000401b16 <setval_399>:
  401b16:	c7 07 89 d6 38 db    	movl   $0xdb38d689,(%rdi)
  401b1c:	c3                   	retq   

0000000000401b1d <getval_419>:
  401b1d:	b8 48 89 e0 c7       	mov    $0xc7e08948,%eax
  401b22:	c3                   	retq   

0000000000401b23 <setval_172>:
  401b23:	c7 07 66 89 c1 c1    	movl   $0xc1c18966,(%rdi)
  401b29:	c3                   	retq   

0000000000401b2a <addval_464>:
  401b2a:	8d 87 89 c1 94 90    	lea    -0x6f6b3e77(%rdi),%eax
  401b30:	c3                   	retq   

0000000000401b31 <setval_323>:
  401b31:	c7 07 09 c1 20 db    	movl   $0xdb20c109,(%rdi)
  401b37:	c3                   	retq   

0000000000401b38 <addval_441>:
  401b38:	8d 87 89 d6 38 db    	lea    -0x24c72977(%rdi),%eax
  401b3e:	c3                   	retq   

0000000000401b3f <end_farm>:
  401b3f:	b8 01 00 00 00       	mov    $0x1,%eax
  401b44:	c3                   	retq   

0000000000401b45 <save_char>:
  401b45:	8b 05 f9 45 20 00    	mov    0x2045f9(%rip),%eax        # 606144 <gets_cnt>
  401b4b:	3d ff 03 00 00       	cmp    $0x3ff,%eax
  401b50:	7f 49                	jg     401b9b <save_char+0x56>
  401b52:	8d 14 40             	lea    (%rax,%rax,2),%edx
  401b55:	89 f9                	mov    %edi,%ecx
  401b57:	c0 e9 04             	shr    $0x4,%cl
  401b5a:	83 e1 0f             	and    $0xf,%ecx
  401b5d:	0f b6 b1 c0 37 40 00 	movzbl 0x4037c0(%rcx),%esi
  401b64:	48 63 ca             	movslq %edx,%rcx
  401b67:	40 88 b1 40 55 60 00 	mov    %sil,0x605540(%rcx)
  401b6e:	8d 4a 01             	lea    0x1(%rdx),%ecx
  401b71:	83 e7 0f             	and    $0xf,%edi
  401b74:	0f b6 b7 c0 37 40 00 	movzbl 0x4037c0(%rdi),%esi
  401b7b:	48 63 c9             	movslq %ecx,%rcx
  401b7e:	40 88 b1 40 55 60 00 	mov    %sil,0x605540(%rcx)
  401b85:	83 c2 02             	add    $0x2,%edx
  401b88:	48 63 d2             	movslq %edx,%rdx
  401b8b:	c6 82 40 55 60 00 20 	movb   $0x20,0x605540(%rdx)
  401b92:	83 c0 01             	add    $0x1,%eax
  401b95:	89 05 a9 45 20 00    	mov    %eax,0x2045a9(%rip)        # 606144 <gets_cnt>
  401b9b:	f3 c3                	repz retq 

0000000000401b9d <save_term>:
  401b9d:	8b 05 a1 45 20 00    	mov    0x2045a1(%rip),%eax        # 606144 <gets_cnt>
  401ba3:	8d 04 40             	lea    (%rax,%rax,2),%eax
  401ba6:	48 98                	cltq   
  401ba8:	c6 80 40 55 60 00 00 	movb   $0x0,0x605540(%rax)
  401baf:	c3                   	retq   

0000000000401bb0 <check_fail>:
  401bb0:	48 83 ec 08          	sub    $0x8,%rsp
  401bb4:	0f be 15 8d 45 20 00 	movsbl 0x20458d(%rip),%edx        # 606148 <target_prefix>
  401bbb:	41 b8 40 55 60 00    	mov    $0x605540,%r8d
  401bc1:	8b 0d 51 39 20 00    	mov    0x203951(%rip),%ecx        # 605518 <check_level>
  401bc7:	be bb 34 40 00       	mov    $0x4034bb,%esi
  401bcc:	bf 01 00 00 00       	mov    $0x1,%edi
  401bd1:	b8 00 00 00 00       	mov    $0x0,%eax
  401bd6:	e8 25 f2 ff ff       	callq  400e00 <__printf_chk@plt>
  401bdb:	bf 01 00 00 00       	mov    $0x1,%edi
  401be0:	e8 6b f2 ff ff       	callq  400e50 <exit@plt>

0000000000401be5 <Gets>:
  401be5:	41 54                	push   %r12
  401be7:	55                   	push   %rbp
  401be8:	53                   	push   %rbx
  401be9:	49 89 fc             	mov    %rdi,%r12
  401bec:	c7 05 4e 45 20 00 00 	movl   $0x0,0x20454e(%rip)        # 606144 <gets_cnt>
  401bf3:	00 00 00 
  401bf6:	48 89 fb             	mov    %rdi,%rbx
  401bf9:	eb 11                	jmp    401c0c <Gets+0x27>
  401bfb:	48 8d 6b 01          	lea    0x1(%rbx),%rbp
  401bff:	88 03                	mov    %al,(%rbx)
  401c01:	0f b6 f8             	movzbl %al,%edi
  401c04:	e8 3c ff ff ff       	callq  401b45 <save_char>
  401c09:	48 89 eb             	mov    %rbp,%rbx
  401c0c:	48 8b 3d fd 38 20 00 	mov    0x2038fd(%rip),%rdi        # 605510 <infile>
  401c13:	e8 b8 f1 ff ff       	callq  400dd0 <_IO_getc@plt>
  401c18:	83 f8 ff             	cmp    $0xffffffff,%eax
  401c1b:	74 05                	je     401c22 <Gets+0x3d>
  401c1d:	83 f8 0a             	cmp    $0xa,%eax
  401c20:	75 d9                	jne    401bfb <Gets+0x16>
  401c22:	c6 03 00             	movb   $0x0,(%rbx)
  401c25:	b8 00 00 00 00       	mov    $0x0,%eax
  401c2a:	e8 6e ff ff ff       	callq  401b9d <save_term>
  401c2f:	4c 89 e0             	mov    %r12,%rax
  401c32:	5b                   	pop    %rbx
  401c33:	5d                   	pop    %rbp
  401c34:	41 5c                	pop    %r12
  401c36:	c3                   	retq   

0000000000401c37 <notify_server>:
  401c37:	53                   	push   %rbx
  401c38:	48 81 ec 10 40 00 00 	sub    $0x4010,%rsp
  401c3f:	64 48 8b 04 25 28 00 	mov    %fs:0x28,%rax
  401c46:	00 00 
  401c48:	48 89 84 24 08 40 00 	mov    %rax,0x4008(%rsp)
  401c4f:	00 
  401c50:	31 c0                	xor    %eax,%eax
  401c52:	83 3d cf 38 20 00 00 	cmpl   $0x0,0x2038cf(%rip)        # 605528 <is_checker>
  401c59:	0f 85 aa 01 00 00    	jne    401e09 <notify_server+0x1d2>
  401c5f:	89 fb                	mov    %edi,%ebx
  401c61:	8b 05 dd 44 20 00    	mov    0x2044dd(%rip),%eax        # 606144 <gets_cnt>
  401c67:	83 c0 64             	add    $0x64,%eax
  401c6a:	3d 00 20 00 00       	cmp    $0x2000,%eax
  401c6f:	7e 1e                	jle    401c8f <notify_server+0x58>
  401c71:	be f0 35 40 00       	mov    $0x4035f0,%esi
  401c76:	bf 01 00 00 00       	mov    $0x1,%edi
  401c7b:	b8 00 00 00 00       	mov    $0x0,%eax
  401c80:	e8 7b f1 ff ff       	callq  400e00 <__printf_chk@plt>
  401c85:	bf 01 00 00 00       	mov    $0x1,%edi
  401c8a:	e8 c1 f1 ff ff       	callq  400e50 <exit@plt>
  401c8f:	0f be 05 b2 44 20 00 	movsbl 0x2044b2(%rip),%eax        # 606148 <target_prefix>
  401c96:	83 3d 0b 38 20 00 00 	cmpl   $0x0,0x20380b(%rip)        # 6054a8 <notify>
  401c9d:	74 08                	je     401ca7 <notify_server+0x70>
  401c9f:	8b 15 7b 38 20 00    	mov    0x20387b(%rip),%edx        # 605520 <authkey>
  401ca5:	eb 05                	jmp    401cac <notify_server+0x75>
  401ca7:	ba ff ff ff ff       	mov    $0xffffffff,%edx
  401cac:	85 db                	test   %ebx,%ebx
  401cae:	74 08                	je     401cb8 <notify_server+0x81>
  401cb0:	41 b9 d1 34 40 00    	mov    $0x4034d1,%r9d
  401cb6:	eb 06                	jmp    401cbe <notify_server+0x87>
  401cb8:	41 b9 d6 34 40 00    	mov    $0x4034d6,%r9d
  401cbe:	68 40 55 60 00       	pushq  $0x605540
  401cc3:	56                   	push   %rsi
  401cc4:	50                   	push   %rax
  401cc5:	52                   	push   %rdx
  401cc6:	44 8b 05 9b 34 20 00 	mov    0x20349b(%rip),%r8d        # 605168 <target_id>
  401ccd:	b9 db 34 40 00       	mov    $0x4034db,%ecx
  401cd2:	ba 00 20 00 00       	mov    $0x2000,%edx
  401cd7:	be 01 00 00 00       	mov    $0x1,%esi
  401cdc:	48 8d 7c 24 20       	lea    0x20(%rsp),%rdi
  401ce1:	b8 00 00 00 00       	mov    $0x0,%eax
  401ce6:	e8 95 f1 ff ff       	callq  400e80 <__sprintf_chk@plt>
  401ceb:	48 83 c4 20          	add    $0x20,%rsp
  401cef:	83 3d b2 37 20 00 00 	cmpl   $0x0,0x2037b2(%rip)        # 6054a8 <notify>
  401cf6:	0f 84 81 00 00 00    	je     401d7d <notify_server+0x146>
  401cfc:	85 db                	test   %ebx,%ebx
  401cfe:	74 6e                	je     401d6e <notify_server+0x137>
  401d00:	4c 8d 8c 24 00 20 00 	lea    0x2000(%rsp),%r9
  401d07:	00 
  401d08:	41 b8 00 00 00 00    	mov    $0x0,%r8d
  401d0e:	48 89 e1             	mov    %rsp,%rcx
  401d11:	48 8b 15 58 34 20 00 	mov    0x203458(%rip),%rdx        # 605170 <lab>
  401d18:	48 8b 35 59 34 20 00 	mov    0x203459(%rip),%rsi        # 605178 <course>
  401d1f:	48 8b 3d 3a 34 20 00 	mov    0x20343a(%rip),%rdi        # 605160 <user_id>
  401d26:	e8 ef 10 00 00       	callq  402e1a <driver_post>
  401d2b:	85 c0                	test   %eax,%eax
  401d2d:	79 26                	jns    401d55 <notify_server+0x11e>
  401d2f:	48 8d 94 24 00 20 00 	lea    0x2000(%rsp),%rdx
  401d36:	00 
  401d37:	be f7 34 40 00       	mov    $0x4034f7,%esi
  401d3c:	bf 01 00 00 00       	mov    $0x1,%edi
  401d41:	b8 00 00 00 00       	mov    $0x0,%eax
  401d46:	e8 b5 f0 ff ff       	callq  400e00 <__printf_chk@plt>
  401d4b:	bf 01 00 00 00       	mov    $0x1,%edi
  401d50:	e8 fb f0 ff ff       	callq  400e50 <exit@plt>
  401d55:	bf 20 36 40 00       	mov    $0x403620,%edi
  401d5a:	e8 71 ef ff ff       	callq  400cd0 <puts@plt>
  401d5f:	bf 03 35 40 00       	mov    $0x403503,%edi
  401d64:	e8 67 ef ff ff       	callq  400cd0 <puts@plt>
  401d69:	e9 9b 00 00 00       	jmpq   401e09 <notify_server+0x1d2>
  401d6e:	bf 0d 35 40 00       	mov    $0x40350d,%edi
  401d73:	e8 58 ef ff ff       	callq  400cd0 <puts@plt>
  401d78:	e9 8c 00 00 00       	jmpq   401e09 <notify_server+0x1d2>
  401d7d:	85 db                	test   %ebx,%ebx
  401d7f:	74 07                	je     401d88 <notify_server+0x151>
  401d81:	ba d1 34 40 00       	mov    $0x4034d1,%edx
  401d86:	eb 05                	jmp    401d8d <notify_server+0x156>
  401d88:	ba d6 34 40 00       	mov    $0x4034d6,%edx
  401d8d:	be 58 36 40 00       	mov    $0x403658,%esi
  401d92:	bf 01 00 00 00       	mov    $0x1,%edi
  401d97:	b8 00 00 00 00       	mov    $0x0,%eax
  401d9c:	e8 5f f0 ff ff       	callq  400e00 <__printf_chk@plt>
  401da1:	48 8b 15 b8 33 20 00 	mov    0x2033b8(%rip),%rdx        # 605160 <user_id>
  401da8:	be 14 35 40 00       	mov    $0x403514,%esi
  401dad:	bf 01 00 00 00       	mov    $0x1,%edi
  401db2:	b8 00 00 00 00       	mov    $0x0,%eax
  401db7:	e8 44 f0 ff ff       	callq  400e00 <__printf_chk@plt>
  401dbc:	48 8b 15 b5 33 20 00 	mov    0x2033b5(%rip),%rdx        # 605178 <course>
  401dc3:	be 21 35 40 00       	mov    $0x403521,%esi
  401dc8:	bf 01 00 00 00       	mov    $0x1,%edi
  401dcd:	b8 00 00 00 00       	mov    $0x0,%eax
  401dd2:	e8 29 f0 ff ff       	callq  400e00 <__printf_chk@plt>
  401dd7:	48 8b 15 92 33 20 00 	mov    0x203392(%rip),%rdx        # 605170 <lab>
  401dde:	be 2d 35 40 00       	mov    $0x40352d,%esi
  401de3:	bf 01 00 00 00       	mov    $0x1,%edi
  401de8:	b8 00 00 00 00       	mov    $0x0,%eax
  401ded:	e8 0e f0 ff ff       	callq  400e00 <__printf_chk@plt>
  401df2:	48 89 e2             	mov    %rsp,%rdx
  401df5:	be 36 35 40 00       	mov    $0x403536,%esi
  401dfa:	bf 01 00 00 00       	mov    $0x1,%edi
  401dff:	b8 00 00 00 00       	mov    $0x0,%eax
  401e04:	e8 f7 ef ff ff       	callq  400e00 <__printf_chk@plt>
  401e09:	48 8b 84 24 08 40 00 	mov    0x4008(%rsp),%rax
  401e10:	00 
  401e11:	64 48 33 04 25 28 00 	xor    %fs:0x28,%rax
  401e18:	00 00 
  401e1a:	74 05                	je     401e21 <notify_server+0x1ea>
  401e1c:	e8 cf ee ff ff       	callq  400cf0 <__stack_chk_fail@plt>
  401e21:	48 81 c4 10 40 00 00 	add    $0x4010,%rsp
  401e28:	5b                   	pop    %rbx
  401e29:	c3                   	retq   

0000000000401e2a <validate>:
  401e2a:	53                   	push   %rbx
  401e2b:	89 fb                	mov    %edi,%ebx
  401e2d:	83 3d f4 36 20 00 00 	cmpl   $0x0,0x2036f4(%rip)        # 605528 <is_checker>
  401e34:	74 6b                	je     401ea1 <validate+0x77>
  401e36:	39 3d e0 36 20 00    	cmp    %edi,0x2036e0(%rip)        # 60551c <vlevel>
  401e3c:	74 14                	je     401e52 <validate+0x28>
  401e3e:	bf 42 35 40 00       	mov    $0x403542,%edi
  401e43:	e8 88 ee ff ff       	callq  400cd0 <puts@plt>
  401e48:	b8 00 00 00 00       	mov    $0x0,%eax
  401e4d:	e8 5e fd ff ff       	callq  401bb0 <check_fail>
  401e52:	8b 15 c0 36 20 00    	mov    0x2036c0(%rip),%edx        # 605518 <check_level>
  401e58:	39 d7                	cmp    %edx,%edi
  401e5a:	74 20                	je     401e7c <validate+0x52>
  401e5c:	89 f9                	mov    %edi,%ecx
  401e5e:	be 80 36 40 00       	mov    $0x403680,%esi
  401e63:	bf 01 00 00 00       	mov    $0x1,%edi
  401e68:	b8 00 00 00 00       	mov    $0x0,%eax
  401e6d:	e8 8e ef ff ff       	callq  400e00 <__printf_chk@plt>
  401e72:	b8 00 00 00 00       	mov    $0x0,%eax
  401e77:	e8 34 fd ff ff       	callq  401bb0 <check_fail>
  401e7c:	0f be 15 c5 42 20 00 	movsbl 0x2042c5(%rip),%edx        # 606148 <target_prefix>
  401e83:	41 b8 40 55 60 00    	mov    $0x605540,%r8d
  401e89:	89 f9                	mov    %edi,%ecx
  401e8b:	be 60 35 40 00       	mov    $0x403560,%esi
  401e90:	bf 01 00 00 00       	mov    $0x1,%edi
  401e95:	b8 00 00 00 00       	mov    $0x0,%eax
  401e9a:	e8 61 ef ff ff       	callq  400e00 <__printf_chk@plt>
  401e9f:	eb 49                	jmp    401eea <validate+0xc0>
  401ea1:	3b 3d 75 36 20 00    	cmp    0x203675(%rip),%edi        # 60551c <vlevel>
  401ea7:	74 18                	je     401ec1 <validate+0x97>
  401ea9:	bf 42 35 40 00       	mov    $0x403542,%edi
  401eae:	e8 1d ee ff ff       	callq  400cd0 <puts@plt>
  401eb3:	89 de                	mov    %ebx,%esi
  401eb5:	bf 00 00 00 00       	mov    $0x0,%edi
  401eba:	e8 78 fd ff ff       	callq  401c37 <notify_server>
  401ebf:	eb 29                	jmp    401eea <validate+0xc0>
  401ec1:	0f be 0d 80 42 20 00 	movsbl 0x204280(%rip),%ecx        # 606148 <target_prefix>
  401ec8:	89 fa                	mov    %edi,%edx
  401eca:	be a8 36 40 00       	mov    $0x4036a8,%esi
  401ecf:	bf 01 00 00 00       	mov    $0x1,%edi
  401ed4:	b8 00 00 00 00       	mov    $0x0,%eax
  401ed9:	e8 22 ef ff ff       	callq  400e00 <__printf_chk@plt>
  401ede:	89 de                	mov    %ebx,%esi
  401ee0:	bf 01 00 00 00       	mov    $0x1,%edi
  401ee5:	e8 4d fd ff ff       	callq  401c37 <notify_server>
  401eea:	5b                   	pop    %rbx
  401eeb:	c3                   	retq   

0000000000401eec <fail>:
  401eec:	48 83 ec 08          	sub    $0x8,%rsp
  401ef0:	83 3d 31 36 20 00 00 	cmpl   $0x0,0x203631(%rip)        # 605528 <is_checker>
  401ef7:	74 0a                	je     401f03 <fail+0x17>
  401ef9:	b8 00 00 00 00       	mov    $0x0,%eax
  401efe:	e8 ad fc ff ff       	callq  401bb0 <check_fail>
  401f03:	89 fe                	mov    %edi,%esi
  401f05:	bf 00 00 00 00       	mov    $0x0,%edi
  401f0a:	e8 28 fd ff ff       	callq  401c37 <notify_server>
  401f0f:	48 83 c4 08          	add    $0x8,%rsp
  401f13:	c3                   	retq   

0000000000401f14 <bushandler>:
  401f14:	48 83 ec 08          	sub    $0x8,%rsp
  401f18:	83 3d 09 36 20 00 00 	cmpl   $0x0,0x203609(%rip)        # 605528 <is_checker>
  401f1f:	74 14                	je     401f35 <bushandler+0x21>
  401f21:	bf 75 35 40 00       	mov    $0x403575,%edi
  401f26:	e8 a5 ed ff ff       	callq  400cd0 <puts@plt>
  401f2b:	b8 00 00 00 00       	mov    $0x0,%eax
  401f30:	e8 7b fc ff ff       	callq  401bb0 <check_fail>
  401f35:	bf e0 36 40 00       	mov    $0x4036e0,%edi
  401f3a:	e8 91 ed ff ff       	callq  400cd0 <puts@plt>
  401f3f:	bf 7f 35 40 00       	mov    $0x40357f,%edi
  401f44:	e8 87 ed ff ff       	callq  400cd0 <puts@plt>
  401f49:	be 00 00 00 00       	mov    $0x0,%esi
  401f4e:	bf 00 00 00 00       	mov    $0x0,%edi
  401f53:	e8 df fc ff ff       	callq  401c37 <notify_server>
  401f58:	bf 01 00 00 00       	mov    $0x1,%edi
  401f5d:	e8 ee ee ff ff       	callq  400e50 <exit@plt>

0000000000401f62 <seghandler>:
  401f62:	48 83 ec 08          	sub    $0x8,%rsp
  401f66:	83 3d bb 35 20 00 00 	cmpl   $0x0,0x2035bb(%rip)        # 605528 <is_checker>
  401f6d:	74 14                	je     401f83 <seghandler+0x21>
  401f6f:	bf 95 35 40 00       	mov    $0x403595,%edi
  401f74:	e8 57 ed ff ff       	callq  400cd0 <puts@plt>
  401f79:	b8 00 00 00 00       	mov    $0x0,%eax
  401f7e:	e8 2d fc ff ff       	callq  401bb0 <check_fail>
  401f83:	bf 00 37 40 00       	mov    $0x403700,%edi
  401f88:	e8 43 ed ff ff       	callq  400cd0 <puts@plt>
  401f8d:	bf 7f 35 40 00       	mov    $0x40357f,%edi
  401f92:	e8 39 ed ff ff       	callq  400cd0 <puts@plt>
  401f97:	be 00 00 00 00       	mov    $0x0,%esi
  401f9c:	bf 00 00 00 00       	mov    $0x0,%edi
  401fa1:	e8 91 fc ff ff       	callq  401c37 <notify_server>
  401fa6:	bf 01 00 00 00       	mov    $0x1,%edi
  401fab:	e8 a0 ee ff ff       	callq  400e50 <exit@plt>

0000000000401fb0 <illegalhandler>:
  401fb0:	48 83 ec 08          	sub    $0x8,%rsp
  401fb4:	83 3d 6d 35 20 00 00 	cmpl   $0x0,0x20356d(%rip)        # 605528 <is_checker>
  401fbb:	74 14                	je     401fd1 <illegalhandler+0x21>
  401fbd:	bf a8 35 40 00       	mov    $0x4035a8,%edi
  401fc2:	e8 09 ed ff ff       	callq  400cd0 <puts@plt>
  401fc7:	b8 00 00 00 00       	mov    $0x0,%eax
  401fcc:	e8 df fb ff ff       	callq  401bb0 <check_fail>
  401fd1:	bf 28 37 40 00       	mov    $0x403728,%edi
  401fd6:	e8 f5 ec ff ff       	callq  400cd0 <puts@plt>
  401fdb:	bf 7f 35 40 00       	mov    $0x40357f,%edi
  401fe0:	e8 eb ec ff ff       	callq  400cd0 <puts@plt>
  401fe5:	be 00 00 00 00       	mov    $0x0,%esi
  401fea:	bf 00 00 00 00       	mov    $0x0,%edi
  401fef:	e8 43 fc ff ff       	callq  401c37 <notify_server>
  401ff4:	bf 01 00 00 00       	mov    $0x1,%edi
  401ff9:	e8 52 ee ff ff       	callq  400e50 <exit@plt>

0000000000401ffe <sigalrmhandler>:
  401ffe:	48 83 ec 08          	sub    $0x8,%rsp
  402002:	83 3d 1f 35 20 00 00 	cmpl   $0x0,0x20351f(%rip)        # 605528 <is_checker>
  402009:	74 14                	je     40201f <sigalrmhandler+0x21>
  40200b:	bf bc 35 40 00       	mov    $0x4035bc,%edi
  402010:	e8 bb ec ff ff       	callq  400cd0 <puts@plt>
  402015:	b8 00 00 00 00       	mov    $0x0,%eax
  40201a:	e8 91 fb ff ff       	callq  401bb0 <check_fail>
  40201f:	ba 05 00 00 00       	mov    $0x5,%edx
  402024:	be 58 37 40 00       	mov    $0x403758,%esi
  402029:	bf 01 00 00 00       	mov    $0x1,%edi
  40202e:	b8 00 00 00 00       	mov    $0x0,%eax
  402033:	e8 c8 ed ff ff       	callq  400e00 <__printf_chk@plt>
  402038:	be 00 00 00 00       	mov    $0x0,%esi
  40203d:	bf 00 00 00 00       	mov    $0x0,%edi
  402042:	e8 f0 fb ff ff       	callq  401c37 <notify_server>
  402047:	bf 01 00 00 00       	mov    $0x1,%edi
  40204c:	e8 ff ed ff ff       	callq  400e50 <exit@plt>

0000000000402051 <launch>:
  402051:	55                   	push   %rbp
  402052:	48 89 e5             	mov    %rsp,%rbp
  402055:	48 83 ec 10          	sub    $0x10,%rsp
  402059:	48 89 fa             	mov    %rdi,%rdx
  40205c:	64 48 8b 04 25 28 00 	mov    %fs:0x28,%rax
  402063:	00 00 
  402065:	48 89 45 f8          	mov    %rax,-0x8(%rbp)
  402069:	31 c0                	xor    %eax,%eax
  40206b:	48 8d 47 1e          	lea    0x1e(%rdi),%rax
  40206f:	48 83 e0 f0          	and    $0xfffffffffffffff0,%rax
  402073:	48 29 c4             	sub    %rax,%rsp
  402076:	48 8d 7c 24 0f       	lea    0xf(%rsp),%rdi
  40207b:	48 83 e7 f0          	and    $0xfffffffffffffff0,%rdi
  40207f:	be f4 00 00 00       	mov    $0xf4,%esi
  402084:	e8 87 ec ff ff       	callq  400d10 <memset@plt>
  402089:	48 8b 05 30 34 20 00 	mov    0x203430(%rip),%rax        # 6054c0 <stdin@@GLIBC_2.2.5>
  402090:	48 39 05 79 34 20 00 	cmp    %rax,0x203479(%rip)        # 605510 <infile>
  402097:	75 14                	jne    4020ad <launch+0x5c>
  402099:	be c4 35 40 00       	mov    $0x4035c4,%esi
  40209e:	bf 01 00 00 00       	mov    $0x1,%edi
  4020a3:	b8 00 00 00 00       	mov    $0x0,%eax
  4020a8:	e8 53 ed ff ff       	callq  400e00 <__printf_chk@plt>
  4020ad:	c7 05 65 34 20 00 00 	movl   $0x0,0x203465(%rip)        # 60551c <vlevel>
  4020b4:	00 00 00 
  4020b7:	b8 00 00 00 00       	mov    $0x0,%eax
  4020bc:	e8 3c f9 ff ff       	callq  4019fd <test>
  4020c1:	83 3d 60 34 20 00 00 	cmpl   $0x0,0x203460(%rip)        # 605528 <is_checker>
  4020c8:	74 14                	je     4020de <launch+0x8d>
  4020ca:	bf d1 35 40 00       	mov    $0x4035d1,%edi
  4020cf:	e8 fc eb ff ff       	callq  400cd0 <puts@plt>
  4020d4:	b8 00 00 00 00       	mov    $0x0,%eax
  4020d9:	e8 d2 fa ff ff       	callq  401bb0 <check_fail>
  4020de:	bf dc 35 40 00       	mov    $0x4035dc,%edi
  4020e3:	e8 e8 eb ff ff       	callq  400cd0 <puts@plt>
  4020e8:	48 8b 45 f8          	mov    -0x8(%rbp),%rax
  4020ec:	64 48 33 04 25 28 00 	xor    %fs:0x28,%rax
  4020f3:	00 00 
  4020f5:	74 05                	je     4020fc <launch+0xab>
  4020f7:	e8 f4 eb ff ff       	callq  400cf0 <__stack_chk_fail@plt>
  4020fc:	c9                   	leaveq 
  4020fd:	c3                   	retq   

00000000004020fe <stable_launch>:
  4020fe:	53                   	push   %rbx
  4020ff:	48 89 3d 02 34 20 00 	mov    %rdi,0x203402(%rip)        # 605508 <global_offset>
  402106:	41 b9 00 00 00 00    	mov    $0x0,%r9d
  40210c:	41 b8 00 00 00 00    	mov    $0x0,%r8d
  402112:	b9 32 01 00 00       	mov    $0x132,%ecx
  402117:	ba 07 00 00 00       	mov    $0x7,%edx
  40211c:	be 00 00 10 00       	mov    $0x100000,%esi
  402121:	bf 00 60 58 55       	mov    $0x55586000,%edi
  402126:	e8 d5 eb ff ff       	callq  400d00 <mmap@plt>
  40212b:	48 89 c3             	mov    %rax,%rbx
  40212e:	48 3d 00 60 58 55    	cmp    $0x55586000,%rax
  402134:	74 37                	je     40216d <stable_launch+0x6f>
  402136:	be 00 00 10 00       	mov    $0x100000,%esi
  40213b:	48 89 c7             	mov    %rax,%rdi
  40213e:	e8 ad ec ff ff       	callq  400df0 <munmap@plt>
  402143:	b9 00 60 58 55       	mov    $0x55586000,%ecx
  402148:	ba 90 37 40 00       	mov    $0x403790,%edx
  40214d:	be 01 00 00 00       	mov    $0x1,%esi
  402152:	48 8b 3d 87 33 20 00 	mov    0x203387(%rip),%rdi        # 6054e0 <stderr@@GLIBC_2.2.5>
  402159:	b8 00 00 00 00       	mov    $0x0,%eax
  40215e:	e8 0d ed ff ff       	callq  400e70 <__fprintf_chk@plt>
  402163:	bf 01 00 00 00       	mov    $0x1,%edi
  402168:	e8 e3 ec ff ff       	callq  400e50 <exit@plt>
  40216d:	48 8d 90 f8 ff 0f 00 	lea    0xffff8(%rax),%rdx
  402174:	48 89 15 d5 3f 20 00 	mov    %rdx,0x203fd5(%rip)        # 606150 <stack_top>
  40217b:	48 89 e0             	mov    %rsp,%rax
  40217e:	48 89 d4             	mov    %rdx,%rsp
  402181:	48 89 c2             	mov    %rax,%rdx
  402184:	48 89 15 75 33 20 00 	mov    %rdx,0x203375(%rip)        # 605500 <global_save_stack>
  40218b:	48 8b 3d 76 33 20 00 	mov    0x203376(%rip),%rdi        # 605508 <global_offset>
  402192:	e8 ba fe ff ff       	callq  402051 <launch>
  402197:	48 8b 05 62 33 20 00 	mov    0x203362(%rip),%rax        # 605500 <global_save_stack>
  40219e:	48 89 c4             	mov    %rax,%rsp
  4021a1:	be 00 00 10 00       	mov    $0x100000,%esi
  4021a6:	48 89 df             	mov    %rbx,%rdi
  4021a9:	e8 42 ec ff ff       	callq  400df0 <munmap@plt>
  4021ae:	5b                   	pop    %rbx
  4021af:	c3                   	retq   

00000000004021b0 <rio_readinitb>:
  4021b0:	89 37                	mov    %esi,(%rdi)
  4021b2:	c7 47 04 00 00 00 00 	movl   $0x0,0x4(%rdi)
  4021b9:	48 8d 47 10          	lea    0x10(%rdi),%rax
  4021bd:	48 89 47 08          	mov    %rax,0x8(%rdi)
  4021c1:	c3                   	retq   

00000000004021c2 <sigalrm_handler>:
  4021c2:	48 83 ec 08          	sub    $0x8,%rsp
  4021c6:	b9 00 00 00 00       	mov    $0x0,%ecx
  4021cb:	ba d0 37 40 00       	mov    $0x4037d0,%edx
  4021d0:	be 01 00 00 00       	mov    $0x1,%esi
  4021d5:	48 8b 3d 04 33 20 00 	mov    0x203304(%rip),%rdi        # 6054e0 <stderr@@GLIBC_2.2.5>
  4021dc:	b8 00 00 00 00       	mov    $0x0,%eax
  4021e1:	e8 8a ec ff ff       	callq  400e70 <__fprintf_chk@plt>
  4021e6:	bf 01 00 00 00       	mov    $0x1,%edi
  4021eb:	e8 60 ec ff ff       	callq  400e50 <exit@plt>

00000000004021f0 <rio_writen>:
  4021f0:	41 55                	push   %r13
  4021f2:	41 54                	push   %r12
  4021f4:	55                   	push   %rbp
  4021f5:	53                   	push   %rbx
  4021f6:	48 83 ec 08          	sub    $0x8,%rsp
  4021fa:	41 89 fc             	mov    %edi,%r12d
  4021fd:	48 89 f5             	mov    %rsi,%rbp
  402200:	49 89 d5             	mov    %rdx,%r13
  402203:	48 89 d3             	mov    %rdx,%rbx
  402206:	eb 28                	jmp    402230 <rio_writen+0x40>
  402208:	48 89 da             	mov    %rbx,%rdx
  40220b:	48 89 ee             	mov    %rbp,%rsi
  40220e:	44 89 e7             	mov    %r12d,%edi
  402211:	e8 ca ea ff ff       	callq  400ce0 <write@plt>
  402216:	48 85 c0             	test   %rax,%rax
  402219:	7f 0f                	jg     40222a <rio_writen+0x3a>
  40221b:	e8 70 ea ff ff       	callq  400c90 <__errno_location@plt>
  402220:	83 38 04             	cmpl   $0x4,(%rax)
  402223:	75 15                	jne    40223a <rio_writen+0x4a>
  402225:	b8 00 00 00 00       	mov    $0x0,%eax
  40222a:	48 29 c3             	sub    %rax,%rbx
  40222d:	48 01 c5             	add    %rax,%rbp
  402230:	48 85 db             	test   %rbx,%rbx
  402233:	75 d3                	jne    402208 <rio_writen+0x18>
  402235:	4c 89 e8             	mov    %r13,%rax
  402238:	eb 07                	jmp    402241 <rio_writen+0x51>
  40223a:	48 c7 c0 ff ff ff ff 	mov    $0xffffffffffffffff,%rax
  402241:	48 83 c4 08          	add    $0x8,%rsp
  402245:	5b                   	pop    %rbx
  402246:	5d                   	pop    %rbp
  402247:	41 5c                	pop    %r12
  402249:	41 5d                	pop    %r13
  40224b:	c3                   	retq   

000000000040224c <rio_read>:
  40224c:	41 55                	push   %r13
  40224e:	41 54                	push   %r12
  402250:	55                   	push   %rbp
  402251:	53                   	push   %rbx
  402252:	48 83 ec 08          	sub    $0x8,%rsp
  402256:	48 89 fb             	mov    %rdi,%rbx
  402259:	49 89 f5             	mov    %rsi,%r13
  40225c:	49 89 d4             	mov    %rdx,%r12
  40225f:	eb 2e                	jmp    40228f <rio_read+0x43>
  402261:	48 8d 6b 10          	lea    0x10(%rbx),%rbp
  402265:	8b 3b                	mov    (%rbx),%edi
  402267:	ba 00 20 00 00       	mov    $0x2000,%edx
  40226c:	48 89 ee             	mov    %rbp,%rsi
  40226f:	e8 cc ea ff ff       	callq  400d40 <read@plt>
  402274:	89 43 04             	mov    %eax,0x4(%rbx)
  402277:	85 c0                	test   %eax,%eax
  402279:	79 0c                	jns    402287 <rio_read+0x3b>
  40227b:	e8 10 ea ff ff       	callq  400c90 <__errno_location@plt>
  402280:	83 38 04             	cmpl   $0x4,(%rax)
  402283:	74 0a                	je     40228f <rio_read+0x43>
  402285:	eb 37                	jmp    4022be <rio_read+0x72>
  402287:	85 c0                	test   %eax,%eax
  402289:	74 3c                	je     4022c7 <rio_read+0x7b>
  40228b:	48 89 6b 08          	mov    %rbp,0x8(%rbx)
  40228f:	8b 6b 04             	mov    0x4(%rbx),%ebp
  402292:	85 ed                	test   %ebp,%ebp
  402294:	7e cb                	jle    402261 <rio_read+0x15>
  402296:	89 e8                	mov    %ebp,%eax
  402298:	49 39 c4             	cmp    %rax,%r12
  40229b:	77 03                	ja     4022a0 <rio_read+0x54>
  40229d:	44 89 e5             	mov    %r12d,%ebp
  4022a0:	4c 63 e5             	movslq %ebp,%r12
  4022a3:	48 8b 73 08          	mov    0x8(%rbx),%rsi
  4022a7:	4c 89 e2             	mov    %r12,%rdx
  4022aa:	4c 89 ef             	mov    %r13,%rdi
  4022ad:	e8 ee ea ff ff       	callq  400da0 <memcpy@plt>
  4022b2:	4c 01 63 08          	add    %r12,0x8(%rbx)
  4022b6:	29 6b 04             	sub    %ebp,0x4(%rbx)
  4022b9:	4c 89 e0             	mov    %r12,%rax
  4022bc:	eb 0e                	jmp    4022cc <rio_read+0x80>
  4022be:	48 c7 c0 ff ff ff ff 	mov    $0xffffffffffffffff,%rax
  4022c5:	eb 05                	jmp    4022cc <rio_read+0x80>
  4022c7:	b8 00 00 00 00       	mov    $0x0,%eax
  4022cc:	48 83 c4 08          	add    $0x8,%rsp
  4022d0:	5b                   	pop    %rbx
  4022d1:	5d                   	pop    %rbp
  4022d2:	41 5c                	pop    %r12
  4022d4:	41 5d                	pop    %r13
  4022d6:	c3                   	retq   

00000000004022d7 <rio_readlineb>:
  4022d7:	41 55                	push   %r13
  4022d9:	41 54                	push   %r12
  4022db:	55                   	push   %rbp
  4022dc:	53                   	push   %rbx
  4022dd:	48 83 ec 18          	sub    $0x18,%rsp
  4022e1:	49 89 fd             	mov    %rdi,%r13
  4022e4:	48 89 f5             	mov    %rsi,%rbp
  4022e7:	49 89 d4             	mov    %rdx,%r12
  4022ea:	64 48 8b 04 25 28 00 	mov    %fs:0x28,%rax
  4022f1:	00 00 
  4022f3:	48 89 44 24 08       	mov    %rax,0x8(%rsp)
  4022f8:	31 c0                	xor    %eax,%eax
  4022fa:	bb 01 00 00 00       	mov    $0x1,%ebx
  4022ff:	eb 3f                	jmp    402340 <rio_readlineb+0x69>
  402301:	ba 01 00 00 00       	mov    $0x1,%edx
  402306:	48 8d 74 24 07       	lea    0x7(%rsp),%rsi
  40230b:	4c 89 ef             	mov    %r13,%rdi
  40230e:	e8 39 ff ff ff       	callq  40224c <rio_read>
  402313:	83 f8 01             	cmp    $0x1,%eax
  402316:	75 15                	jne    40232d <rio_readlineb+0x56>
  402318:	48 8d 45 01          	lea    0x1(%rbp),%rax
  40231c:	0f b6 54 24 07       	movzbl 0x7(%rsp),%edx
  402321:	88 55 00             	mov    %dl,0x0(%rbp)
  402324:	80 7c 24 07 0a       	cmpb   $0xa,0x7(%rsp)
  402329:	75 0e                	jne    402339 <rio_readlineb+0x62>
  40232b:	eb 1a                	jmp    402347 <rio_readlineb+0x70>
  40232d:	85 c0                	test   %eax,%eax
  40232f:	75 22                	jne    402353 <rio_readlineb+0x7c>
  402331:	48 83 fb 01          	cmp    $0x1,%rbx
  402335:	75 13                	jne    40234a <rio_readlineb+0x73>
  402337:	eb 23                	jmp    40235c <rio_readlineb+0x85>
  402339:	48 83 c3 01          	add    $0x1,%rbx
  40233d:	48 89 c5             	mov    %rax,%rbp
  402340:	4c 39 e3             	cmp    %r12,%rbx
  402343:	72 bc                	jb     402301 <rio_readlineb+0x2a>
  402345:	eb 03                	jmp    40234a <rio_readlineb+0x73>
  402347:	48 89 c5             	mov    %rax,%rbp
  40234a:	c6 45 00 00          	movb   $0x0,0x0(%rbp)
  40234e:	48 89 d8             	mov    %rbx,%rax
  402351:	eb 0e                	jmp    402361 <rio_readlineb+0x8a>
  402353:	48 c7 c0 ff ff ff ff 	mov    $0xffffffffffffffff,%rax
  40235a:	eb 05                	jmp    402361 <rio_readlineb+0x8a>
  40235c:	b8 00 00 00 00       	mov    $0x0,%eax
  402361:	48 8b 4c 24 08       	mov    0x8(%rsp),%rcx
  402366:	64 48 33 0c 25 28 00 	xor    %fs:0x28,%rcx
  40236d:	00 00 
  40236f:	74 05                	je     402376 <rio_readlineb+0x9f>
  402371:	e8 7a e9 ff ff       	callq  400cf0 <__stack_chk_fail@plt>
  402376:	48 83 c4 18          	add    $0x18,%rsp
  40237a:	5b                   	pop    %rbx
  40237b:	5d                   	pop    %rbp
  40237c:	41 5c                	pop    %r12
  40237e:	41 5d                	pop    %r13
  402380:	c3                   	retq   

0000000000402381 <urlencode>:
  402381:	41 54                	push   %r12
  402383:	55                   	push   %rbp
  402384:	53                   	push   %rbx
  402385:	48 83 ec 10          	sub    $0x10,%rsp
  402389:	48 89 fb             	mov    %rdi,%rbx
  40238c:	48 89 f5             	mov    %rsi,%rbp
  40238f:	64 48 8b 04 25 28 00 	mov    %fs:0x28,%rax
  402396:	00 00 
  402398:	48 89 44 24 08       	mov    %rax,0x8(%rsp)
  40239d:	31 c0                	xor    %eax,%eax
  40239f:	48 c7 c1 ff ff ff ff 	mov    $0xffffffffffffffff,%rcx
  4023a6:	f2 ae                	repnz scas %es:(%rdi),%al
  4023a8:	48 f7 d1             	not    %rcx
  4023ab:	8d 41 ff             	lea    -0x1(%rcx),%eax
  4023ae:	e9 aa 00 00 00       	jmpq   40245d <urlencode+0xdc>
  4023b3:	44 0f b6 03          	movzbl (%rbx),%r8d
  4023b7:	41 80 f8 2a          	cmp    $0x2a,%r8b
  4023bb:	0f 94 c2             	sete   %dl
  4023be:	41 80 f8 2d          	cmp    $0x2d,%r8b
  4023c2:	0f 94 c0             	sete   %al
  4023c5:	08 c2                	or     %al,%dl
  4023c7:	75 24                	jne    4023ed <urlencode+0x6c>
  4023c9:	41 80 f8 2e          	cmp    $0x2e,%r8b
  4023cd:	74 1e                	je     4023ed <urlencode+0x6c>
  4023cf:	41 80 f8 5f          	cmp    $0x5f,%r8b
  4023d3:	74 18                	je     4023ed <urlencode+0x6c>
  4023d5:	41 8d 40 d0          	lea    -0x30(%r8),%eax
  4023d9:	3c 09                	cmp    $0x9,%al
  4023db:	76 10                	jbe    4023ed <urlencode+0x6c>
  4023dd:	41 8d 40 bf          	lea    -0x41(%r8),%eax
  4023e1:	3c 19                	cmp    $0x19,%al
  4023e3:	76 08                	jbe    4023ed <urlencode+0x6c>
  4023e5:	41 8d 40 9f          	lea    -0x61(%r8),%eax
  4023e9:	3c 19                	cmp    $0x19,%al
  4023eb:	77 0a                	ja     4023f7 <urlencode+0x76>
  4023ed:	44 88 45 00          	mov    %r8b,0x0(%rbp)
  4023f1:	48 8d 6d 01          	lea    0x1(%rbp),%rbp
  4023f5:	eb 5f                	jmp    402456 <urlencode+0xd5>
  4023f7:	41 80 f8 20          	cmp    $0x20,%r8b
  4023fb:	75 0a                	jne    402407 <urlencode+0x86>
  4023fd:	c6 45 00 2b          	movb   $0x2b,0x0(%rbp)
  402401:	48 8d 6d 01          	lea    0x1(%rbp),%rbp
  402405:	eb 4f                	jmp    402456 <urlencode+0xd5>
  402407:	41 8d 40 e0          	lea    -0x20(%r8),%eax
  40240b:	3c 5f                	cmp    $0x5f,%al
  40240d:	0f 96 c2             	setbe  %dl
  402410:	41 80 f8 09          	cmp    $0x9,%r8b
  402414:	0f 94 c0             	sete   %al
  402417:	08 c2                	or     %al,%dl
  402419:	74 50                	je     40246b <urlencode+0xea>
  40241b:	45 0f b6 c0          	movzbl %r8b,%r8d
  40241f:	b9 68 38 40 00       	mov    $0x403868,%ecx
  402424:	ba 08 00 00 00       	mov    $0x8,%edx
  402429:	be 01 00 00 00       	mov    $0x1,%esi
  40242e:	48 89 e7             	mov    %rsp,%rdi
  402431:	b8 00 00 00 00       	mov    $0x0,%eax
  402436:	e8 45 ea ff ff       	callq  400e80 <__sprintf_chk@plt>
  40243b:	0f b6 04 24          	movzbl (%rsp),%eax
  40243f:	88 45 00             	mov    %al,0x0(%rbp)
  402442:	0f b6 44 24 01       	movzbl 0x1(%rsp),%eax
  402447:	88 45 01             	mov    %al,0x1(%rbp)
  40244a:	0f b6 44 24 02       	movzbl 0x2(%rsp),%eax
  40244f:	88 45 02             	mov    %al,0x2(%rbp)
  402452:	48 8d 6d 03          	lea    0x3(%rbp),%rbp
  402456:	48 83 c3 01          	add    $0x1,%rbx
  40245a:	44 89 e0             	mov    %r12d,%eax
  40245d:	44 8d 60 ff          	lea    -0x1(%rax),%r12d
  402461:	85 c0                	test   %eax,%eax
  402463:	0f 85 4a ff ff ff    	jne    4023b3 <urlencode+0x32>
  402469:	eb 05                	jmp    402470 <urlencode+0xef>
  40246b:	b8 ff ff ff ff       	mov    $0xffffffff,%eax
  402470:	48 8b 74 24 08       	mov    0x8(%rsp),%rsi
  402475:	64 48 33 34 25 28 00 	xor    %fs:0x28,%rsi
  40247c:	00 00 
  40247e:	74 05                	je     402485 <urlencode+0x104>
  402480:	e8 6b e8 ff ff       	callq  400cf0 <__stack_chk_fail@plt>
  402485:	48 83 c4 10          	add    $0x10,%rsp
  402489:	5b                   	pop    %rbx
  40248a:	5d                   	pop    %rbp
  40248b:	41 5c                	pop    %r12
  40248d:	c3                   	retq   

000000000040248e <submitr>:
  40248e:	41 57                	push   %r15
  402490:	41 56                	push   %r14
  402492:	41 55                	push   %r13
  402494:	41 54                	push   %r12
  402496:	55                   	push   %rbp
  402497:	53                   	push   %rbx
  402498:	48 81 ec 58 a0 00 00 	sub    $0xa058,%rsp
  40249f:	49 89 fc             	mov    %rdi,%r12
  4024a2:	89 74 24 04          	mov    %esi,0x4(%rsp)
  4024a6:	49 89 d7             	mov    %rdx,%r15
  4024a9:	49 89 ce             	mov    %rcx,%r14
  4024ac:	4c 89 44 24 08       	mov    %r8,0x8(%rsp)
  4024b1:	4d 89 cd             	mov    %r9,%r13
  4024b4:	48 8b 9c 24 90 a0 00 	mov    0xa090(%rsp),%rbx
  4024bb:	00 
  4024bc:	64 48 8b 04 25 28 00 	mov    %fs:0x28,%rax
  4024c3:	00 00 
  4024c5:	48 89 84 24 48 a0 00 	mov    %rax,0xa048(%rsp)
  4024cc:	00 
  4024cd:	31 c0                	xor    %eax,%eax
  4024cf:	c7 44 24 1c 00 00 00 	movl   $0x0,0x1c(%rsp)
  4024d6:	00 
  4024d7:	ba 00 00 00 00       	mov    $0x0,%edx
  4024dc:	be 01 00 00 00       	mov    $0x1,%esi
  4024e1:	bf 02 00 00 00       	mov    $0x2,%edi
  4024e6:	e8 a5 e9 ff ff       	callq  400e90 <socket@plt>
  4024eb:	85 c0                	test   %eax,%eax
  4024ed:	79 4e                	jns    40253d <submitr+0xaf>
  4024ef:	48 b8 45 72 72 6f 72 	movabs $0x43203a726f727245,%rax
  4024f6:	3a 20 43 
  4024f9:	48 89 03             	mov    %rax,(%rbx)
  4024fc:	48 b8 6c 69 65 6e 74 	movabs $0x6e7520746e65696c,%rax
  402503:	20 75 6e 
  402506:	48 89 43 08          	mov    %rax,0x8(%rbx)
  40250a:	48 b8 61 62 6c 65 20 	movabs $0x206f7420656c6261,%rax
  402511:	74 6f 20 
  402514:	48 89 43 10          	mov    %rax,0x10(%rbx)
  402518:	48 b8 63 72 65 61 74 	movabs $0x7320657461657263,%rax
  40251f:	65 20 73 
  402522:	48 89 43 18          	mov    %rax,0x18(%rbx)
  402526:	c7 43 20 6f 63 6b 65 	movl   $0x656b636f,0x20(%rbx)
  40252d:	66 c7 43 24 74 00    	movw   $0x74,0x24(%rbx)
  402533:	b8 ff ff ff ff       	mov    $0xffffffff,%eax
  402538:	e9 97 06 00 00       	jmpq   402bd4 <submitr+0x746>
  40253d:	89 c5                	mov    %eax,%ebp
  40253f:	4c 89 e7             	mov    %r12,%rdi
  402542:	e8 29 e8 ff ff       	callq  400d70 <gethostbyname@plt>
  402547:	48 85 c0             	test   %rax,%rax
  40254a:	75 67                	jne    4025b3 <submitr+0x125>
  40254c:	48 b8 45 72 72 6f 72 	movabs $0x44203a726f727245,%rax
  402553:	3a 20 44 
  402556:	48 89 03             	mov    %rax,(%rbx)
  402559:	48 b8 4e 53 20 69 73 	movabs $0x6e7520736920534e,%rax
  402560:	20 75 6e 
  402563:	48 89 43 08          	mov    %rax,0x8(%rbx)
  402567:	48 b8 61 62 6c 65 20 	movabs $0x206f7420656c6261,%rax
  40256e:	74 6f 20 
  402571:	48 89 43 10          	mov    %rax,0x10(%rbx)
  402575:	48 b8 72 65 73 6f 6c 	movabs $0x2065766c6f736572,%rax
  40257c:	76 65 20 
  40257f:	48 89 43 18          	mov    %rax,0x18(%rbx)
  402583:	48 b8 73 65 72 76 65 	movabs $0x6120726576726573,%rax
  40258a:	72 20 61 
  40258d:	48 89 43 20          	mov    %rax,0x20(%rbx)
  402591:	c7 43 28 64 64 72 65 	movl   $0x65726464,0x28(%rbx)
  402598:	66 c7 43 2c 73 73    	movw   $0x7373,0x2c(%rbx)
  40259e:	c6 43 2e 00          	movb   $0x0,0x2e(%rbx)
  4025a2:	89 ef                	mov    %ebp,%edi
  4025a4:	e8 87 e7 ff ff       	callq  400d30 <close@plt>
  4025a9:	b8 ff ff ff ff       	mov    $0xffffffff,%eax
  4025ae:	e9 21 06 00 00       	jmpq   402bd4 <submitr+0x746>
  4025b3:	48 c7 44 24 20 00 00 	movq   $0x0,0x20(%rsp)
  4025ba:	00 00 
  4025bc:	48 c7 44 24 28 00 00 	movq   $0x0,0x28(%rsp)
  4025c3:	00 00 
  4025c5:	66 c7 44 24 20 02 00 	movw   $0x2,0x20(%rsp)
  4025cc:	48 63 50 14          	movslq 0x14(%rax),%rdx
  4025d0:	48 8b 40 18          	mov    0x18(%rax),%rax
  4025d4:	48 8b 30             	mov    (%rax),%rsi
  4025d7:	48 8d 7c 24 24       	lea    0x24(%rsp),%rdi
  4025dc:	b9 0c 00 00 00       	mov    $0xc,%ecx
  4025e1:	e8 9a e7 ff ff       	callq  400d80 <__memmove_chk@plt>
  4025e6:	0f b7 44 24 04       	movzwl 0x4(%rsp),%eax
  4025eb:	66 c1 c8 08          	ror    $0x8,%ax
  4025ef:	66 89 44 24 22       	mov    %ax,0x22(%rsp)
  4025f4:	ba 10 00 00 00       	mov    $0x10,%edx
  4025f9:	48 8d 74 24 20       	lea    0x20(%rsp),%rsi
  4025fe:	89 ef                	mov    %ebp,%edi
  402600:	e8 5b e8 ff ff       	callq  400e60 <connect@plt>
  402605:	85 c0                	test   %eax,%eax
  402607:	79 59                	jns    402662 <submitr+0x1d4>
  402609:	48 b8 45 72 72 6f 72 	movabs $0x55203a726f727245,%rax
  402610:	3a 20 55 
  402613:	48 89 03             	mov    %rax,(%rbx)
  402616:	48 b8 6e 61 62 6c 65 	movabs $0x6f7420656c62616e,%rax
  40261d:	20 74 6f 
  402620:	48 89 43 08          	mov    %rax,0x8(%rbx)
  402624:	48 b8 20 63 6f 6e 6e 	movabs $0x7463656e6e6f6320,%rax
  40262b:	65 63 74 
  40262e:	48 89 43 10          	mov    %rax,0x10(%rbx)
  402632:	48 b8 20 74 6f 20 74 	movabs $0x20656874206f7420,%rax
  402639:	68 65 20 
  40263c:	48 89 43 18          	mov    %rax,0x18(%rbx)
  402640:	c7 43 20 73 65 72 76 	movl   $0x76726573,0x20(%rbx)
  402647:	66 c7 43 24 65 72    	movw   $0x7265,0x24(%rbx)
  40264d:	c6 43 26 00          	movb   $0x0,0x26(%rbx)
  402651:	89 ef                	mov    %ebp,%edi
  402653:	e8 d8 e6 ff ff       	callq  400d30 <close@plt>
  402658:	b8 ff ff ff ff       	mov    $0xffffffff,%eax
  40265d:	e9 72 05 00 00       	jmpq   402bd4 <submitr+0x746>
  402662:	48 c7 c6 ff ff ff ff 	mov    $0xffffffffffffffff,%rsi
  402669:	b8 00 00 00 00       	mov    $0x0,%eax
  40266e:	48 89 f1             	mov    %rsi,%rcx
  402671:	4c 89 ef             	mov    %r13,%rdi
  402674:	f2 ae                	repnz scas %es:(%rdi),%al
  402676:	48 f7 d1             	not    %rcx
  402679:	48 89 ca             	mov    %rcx,%rdx
  40267c:	48 89 f1             	mov    %rsi,%rcx
  40267f:	4c 89 ff             	mov    %r15,%rdi
  402682:	f2 ae                	repnz scas %es:(%rdi),%al
  402684:	48 f7 d1             	not    %rcx
  402687:	49 89 c8             	mov    %rcx,%r8
  40268a:	48 89 f1             	mov    %rsi,%rcx
  40268d:	4c 89 f7             	mov    %r14,%rdi
  402690:	f2 ae                	repnz scas %es:(%rdi),%al
  402692:	48 f7 d1             	not    %rcx
  402695:	4d 8d 44 08 fe       	lea    -0x2(%r8,%rcx,1),%r8
  40269a:	48 89 f1             	mov    %rsi,%rcx
  40269d:	48 8b 7c 24 08       	mov    0x8(%rsp),%rdi
  4026a2:	f2 ae                	repnz scas %es:(%rdi),%al
  4026a4:	48 89 c8             	mov    %rcx,%rax
  4026a7:	48 f7 d0             	not    %rax
  4026aa:	49 8d 4c 00 ff       	lea    -0x1(%r8,%rax,1),%rcx
  4026af:	48 8d 44 52 fd       	lea    -0x3(%rdx,%rdx,2),%rax
  4026b4:	48 8d 84 01 80 00 00 	lea    0x80(%rcx,%rax,1),%rax
  4026bb:	00 
  4026bc:	48 3d 00 20 00 00    	cmp    $0x2000,%rax
  4026c2:	76 72                	jbe    402736 <submitr+0x2a8>
  4026c4:	48 b8 45 72 72 6f 72 	movabs $0x52203a726f727245,%rax
  4026cb:	3a 20 52 
  4026ce:	48 89 03             	mov    %rax,(%rbx)
  4026d1:	48 b8 65 73 75 6c 74 	movabs $0x747320746c757365,%rax
  4026d8:	20 73 74 
  4026db:	48 89 43 08          	mov    %rax,0x8(%rbx)
  4026df:	48 b8 72 69 6e 67 20 	movabs $0x6f6f7420676e6972,%rax
  4026e6:	74 6f 6f 
  4026e9:	48 89 43 10          	mov    %rax,0x10(%rbx)
  4026ed:	48 b8 20 6c 61 72 67 	movabs $0x202e656772616c20,%rax
  4026f4:	65 2e 20 
  4026f7:	48 89 43 18          	mov    %rax,0x18(%rbx)
  4026fb:	48 b8 49 6e 63 72 65 	movabs $0x6573616572636e49,%rax
  402702:	61 73 65 
  402705:	48 89 43 20          	mov    %rax,0x20(%rbx)
  402709:	48 b8 20 53 55 42 4d 	movabs $0x5254494d42555320,%rax
  402710:	49 54 52 
  402713:	48 89 43 28          	mov    %rax,0x28(%rbx)
  402717:	48 b8 5f 4d 41 58 42 	movabs $0x46554258414d5f,%rax
  40271e:	55 46 00 
  402721:	48 89 43 30          	mov    %rax,0x30(%rbx)
  402725:	89 ef                	mov    %ebp,%edi
  402727:	e8 04 e6 ff ff       	callq  400d30 <close@plt>
  40272c:	b8 ff ff ff ff       	mov    $0xffffffff,%eax
  402731:	e9 9e 04 00 00       	jmpq   402bd4 <submitr+0x746>
  402736:	48 8d b4 24 40 40 00 	lea    0x4040(%rsp),%rsi
  40273d:	00 
  40273e:	b9 00 04 00 00       	mov    $0x400,%ecx
  402743:	b8 00 00 00 00       	mov    $0x0,%eax
  402748:	48 89 f7             	mov    %rsi,%rdi
  40274b:	f3 48 ab             	rep stos %rax,%es:(%rdi)
  40274e:	4c 89 ef             	mov    %r13,%rdi
  402751:	e8 2b fc ff ff       	callq  402381 <urlencode>
  402756:	85 c0                	test   %eax,%eax
  402758:	0f 89 8a 00 00 00    	jns    4027e8 <submitr+0x35a>
  40275e:	48 b8 45 72 72 6f 72 	movabs $0x52203a726f727245,%rax
  402765:	3a 20 52 
  402768:	48 89 03             	mov    %rax,(%rbx)
  40276b:	48 b8 65 73 75 6c 74 	movabs $0x747320746c757365,%rax
  402772:	20 73 74 
  402775:	48 89 43 08          	mov    %rax,0x8(%rbx)
  402779:	48 b8 72 69 6e 67 20 	movabs $0x6e6f6320676e6972,%rax
  402780:	63 6f 6e 
  402783:	48 89 43 10          	mov    %rax,0x10(%rbx)
  402787:	48 b8 74 61 69 6e 73 	movabs $0x6e6120736e696174,%rax
  40278e:	20 61 6e 
  402791:	48 89 43 18          	mov    %rax,0x18(%rbx)
  402795:	48 b8 20 69 6c 6c 65 	movabs $0x6c6167656c6c6920,%rax
  40279c:	67 61 6c 
  40279f:	48 89 43 20          	mov    %rax,0x20(%rbx)
  4027a3:	48 b8 20 6f 72 20 75 	movabs $0x72706e7520726f20,%rax
  4027aa:	6e 70 72 
  4027ad:	48 89 43 28          	mov    %rax,0x28(%rbx)
  4027b1:	48 b8 69 6e 74 61 62 	movabs $0x20656c6261746e69,%rax
  4027b8:	6c 65 20 
  4027bb:	48 89 43 30          	mov    %rax,0x30(%rbx)
  4027bf:	48 b8 63 68 61 72 61 	movabs $0x6574636172616863,%rax
  4027c6:	63 74 65 
  4027c9:	48 89 43 38          	mov    %rax,0x38(%rbx)
  4027cd:	66 c7 43 40 72 2e    	movw   $0x2e72,0x40(%rbx)
  4027d3:	c6 43 42 00          	movb   $0x0,0x42(%rbx)
  4027d7:	89 ef                	mov    %ebp,%edi
  4027d9:	e8 52 e5 ff ff       	callq  400d30 <close@plt>
  4027de:	b8 ff ff ff ff       	mov    $0xffffffff,%eax
  4027e3:	e9 ec 03 00 00       	jmpq   402bd4 <submitr+0x746>
  4027e8:	4c 8d ac 24 40 20 00 	lea    0x2040(%rsp),%r13
  4027ef:	00 
  4027f0:	41 54                	push   %r12
  4027f2:	48 8d 84 24 48 40 00 	lea    0x4048(%rsp),%rax
  4027f9:	00 
  4027fa:	50                   	push   %rax
  4027fb:	4d 89 f9             	mov    %r15,%r9
  4027fe:	4d 89 f0             	mov    %r14,%r8
  402801:	b9 f8 37 40 00       	mov    $0x4037f8,%ecx
  402806:	ba 00 20 00 00       	mov    $0x2000,%edx
  40280b:	be 01 00 00 00       	mov    $0x1,%esi
  402810:	4c 89 ef             	mov    %r13,%rdi
  402813:	b8 00 00 00 00       	mov    $0x0,%eax
  402818:	e8 63 e6 ff ff       	callq  400e80 <__sprintf_chk@plt>
  40281d:	b8 00 00 00 00       	mov    $0x0,%eax
  402822:	48 c7 c1 ff ff ff ff 	mov    $0xffffffffffffffff,%rcx
  402829:	4c 89 ef             	mov    %r13,%rdi
  40282c:	f2 ae                	repnz scas %es:(%rdi),%al
  40282e:	48 f7 d1             	not    %rcx
  402831:	48 8d 51 ff          	lea    -0x1(%rcx),%rdx
  402835:	4c 89 ee             	mov    %r13,%rsi
  402838:	89 ef                	mov    %ebp,%edi
  40283a:	e8 b1 f9 ff ff       	callq  4021f0 <rio_writen>
  40283f:	48 83 c4 10          	add    $0x10,%rsp
  402843:	48 85 c0             	test   %rax,%rax
  402846:	79 6e                	jns    4028b6 <submitr+0x428>
  402848:	48 b8 45 72 72 6f 72 	movabs $0x43203a726f727245,%rax
  40284f:	3a 20 43 
  402852:	48 89 03             	mov    %rax,(%rbx)
  402855:	48 b8 6c 69 65 6e 74 	movabs $0x6e7520746e65696c,%rax
  40285c:	20 75 6e 
  40285f:	48 89 43 08          	mov    %rax,0x8(%rbx)
  402863:	48 b8 61 62 6c 65 20 	movabs $0x206f7420656c6261,%rax
  40286a:	74 6f 20 
  40286d:	48 89 43 10          	mov    %rax,0x10(%rbx)
  402871:	48 b8 77 72 69 74 65 	movabs $0x6f74206574697277,%rax
  402878:	20 74 6f 
  40287b:	48 89 43 18          	mov    %rax,0x18(%rbx)
  40287f:	48 b8 20 74 68 65 20 	movabs $0x7365722065687420,%rax
  402886:	72 65 73 
  402889:	48 89 43 20          	mov    %rax,0x20(%rbx)
  40288d:	48 b8 75 6c 74 20 73 	movabs $0x7672657320746c75,%rax
  402894:	65 72 76 
  402897:	48 89 43 28          	mov    %rax,0x28(%rbx)
  40289b:	66 c7 43 30 65 72    	movw   $0x7265,0x30(%rbx)
  4028a1:	c6 43 32 00          	movb   $0x0,0x32(%rbx)
  4028a5:	89 ef                	mov    %ebp,%edi
  4028a7:	e8 84 e4 ff ff       	callq  400d30 <close@plt>
  4028ac:	b8 ff ff ff ff       	mov    $0xffffffff,%eax
  4028b1:	e9 1e 03 00 00       	jmpq   402bd4 <submitr+0x746>
  4028b6:	89 ee                	mov    %ebp,%esi
  4028b8:	48 8d 7c 24 30       	lea    0x30(%rsp),%rdi
  4028bd:	e8 ee f8 ff ff       	callq  4021b0 <rio_readinitb>
  4028c2:	ba 00 20 00 00       	mov    $0x2000,%edx
  4028c7:	48 8d b4 24 40 20 00 	lea    0x2040(%rsp),%rsi
  4028ce:	00 
  4028cf:	48 8d 7c 24 30       	lea    0x30(%rsp),%rdi
  4028d4:	e8 fe f9 ff ff       	callq  4022d7 <rio_readlineb>
  4028d9:	48 85 c0             	test   %rax,%rax
  4028dc:	7f 7d                	jg     40295b <submitr+0x4cd>
  4028de:	48 b8 45 72 72 6f 72 	movabs $0x43203a726f727245,%rax
  4028e5:	3a 20 43 
  4028e8:	48 89 03             	mov    %rax,(%rbx)
  4028eb:	48 b8 6c 69 65 6e 74 	movabs $0x6e7520746e65696c,%rax
  4028f2:	20 75 6e 
  4028f5:	48 89 43 08          	mov    %rax,0x8(%rbx)
  4028f9:	48 b8 61 62 6c 65 20 	movabs $0x206f7420656c6261,%rax
  402900:	74 6f 20 
  402903:	48 89 43 10          	mov    %rax,0x10(%rbx)
  402907:	48 b8 72 65 61 64 20 	movabs $0x7269662064616572,%rax
  40290e:	66 69 72 
  402911:	48 89 43 18          	mov    %rax,0x18(%rbx)
  402915:	48 b8 73 74 20 68 65 	movabs $0x6564616568207473,%rax
  40291c:	61 64 65 
  40291f:	48 89 43 20          	mov    %rax,0x20(%rbx)
  402923:	48 b8 72 20 66 72 6f 	movabs $0x72206d6f72662072,%rax
  40292a:	6d 20 72 
  40292d:	48 89 43 28          	mov    %rax,0x28(%rbx)
  402931:	48 b8 65 73 75 6c 74 	movabs $0x657320746c757365,%rax
  402938:	20 73 65 
  40293b:	48 89 43 30          	mov    %rax,0x30(%rbx)
  40293f:	c7 43 38 72 76 65 72 	movl   $0x72657672,0x38(%rbx)
  402946:	c6 43 3c 00          	movb   $0x0,0x3c(%rbx)
  40294a:	89 ef                	mov    %ebp,%edi
  40294c:	e8 df e3 ff ff       	callq  400d30 <close@plt>
  402951:	b8 ff ff ff ff       	mov    $0xffffffff,%eax
  402956:	e9 79 02 00 00       	jmpq   402bd4 <submitr+0x746>
  40295b:	4c 8d 84 24 40 80 00 	lea    0x8040(%rsp),%r8
  402962:	00 
  402963:	48 8d 4c 24 1c       	lea    0x1c(%rsp),%rcx
  402968:	48 8d 94 24 40 60 00 	lea    0x6040(%rsp),%rdx
  40296f:	00 
  402970:	be 6f 38 40 00       	mov    $0x40386f,%esi
  402975:	48 8d bc 24 40 20 00 	lea    0x2040(%rsp),%rdi
  40297c:	00 
  40297d:	b8 00 00 00 00       	mov    $0x0,%eax
  402982:	e8 59 e4 ff ff       	callq  400de0 <__isoc99_sscanf@plt>
  402987:	e9 95 00 00 00       	jmpq   402a21 <submitr+0x593>
  40298c:	ba 00 20 00 00       	mov    $0x2000,%edx
  402991:	48 8d b4 24 40 20 00 	lea    0x2040(%rsp),%rsi
  402998:	00 
  402999:	48 8d 7c 24 30       	lea    0x30(%rsp),%rdi
  40299e:	e8 34 f9 ff ff       	callq  4022d7 <rio_readlineb>
  4029a3:	48 85 c0             	test   %rax,%rax
  4029a6:	7f 79                	jg     402a21 <submitr+0x593>
  4029a8:	48 b8 45 72 72 6f 72 	movabs $0x43203a726f727245,%rax
  4029af:	3a 20 43 
  4029b2:	48 89 03             	mov    %rax,(%rbx)
  4029b5:	48 b8 6c 69 65 6e 74 	movabs $0x6e7520746e65696c,%rax
  4029bc:	20 75 6e 
  4029bf:	48 89 43 08          	mov    %rax,0x8(%rbx)
  4029c3:	48 b8 61 62 6c 65 20 	movabs $0x206f7420656c6261,%rax
  4029ca:	74 6f 20 
  4029cd:	48 89 43 10          	mov    %rax,0x10(%rbx)
  4029d1:	48 b8 72 65 61 64 20 	movabs $0x6165682064616572,%rax
  4029d8:	68 65 61 
  4029db:	48 89 43 18          	mov    %rax,0x18(%rbx)
  4029df:	48 b8 64 65 72 73 20 	movabs $0x6f72662073726564,%rax
  4029e6:	66 72 6f 
  4029e9:	48 89 43 20          	mov    %rax,0x20(%rbx)
  4029ed:	48 b8 6d 20 74 68 65 	movabs $0x657220656874206d,%rax
  4029f4:	20 72 65 
  4029f7:	48 89 43 28          	mov    %rax,0x28(%rbx)
  4029fb:	48 b8 73 75 6c 74 20 	movabs $0x72657320746c7573,%rax
  402a02:	73 65 72 
  402a05:	48 89 43 30          	mov    %rax,0x30(%rbx)
  402a09:	c7 43 38 76 65 72 00 	movl   $0x726576,0x38(%rbx)
  402a10:	89 ef                	mov    %ebp,%edi
  402a12:	e8 19 e3 ff ff       	callq  400d30 <close@plt>
  402a17:	b8 ff ff ff ff       	mov    $0xffffffff,%eax
  402a1c:	e9 b3 01 00 00       	jmpq   402bd4 <submitr+0x746>
  402a21:	0f b6 94 24 40 20 00 	movzbl 0x2040(%rsp),%edx
  402a28:	00 
  402a29:	b8 0d 00 00 00       	mov    $0xd,%eax
  402a2e:	29 d0                	sub    %edx,%eax
  402a30:	75 1b                	jne    402a4d <submitr+0x5bf>
  402a32:	0f b6 94 24 41 20 00 	movzbl 0x2041(%rsp),%edx
  402a39:	00 
  402a3a:	b8 0a 00 00 00       	mov    $0xa,%eax
  402a3f:	29 d0                	sub    %edx,%eax
  402a41:	75 0a                	jne    402a4d <submitr+0x5bf>
  402a43:	0f b6 84 24 42 20 00 	movzbl 0x2042(%rsp),%eax
  402a4a:	00 
  402a4b:	f7 d8                	neg    %eax
  402a4d:	85 c0                	test   %eax,%eax
  402a4f:	0f 85 37 ff ff ff    	jne    40298c <submitr+0x4fe>
  402a55:	ba 00 20 00 00       	mov    $0x2000,%edx
  402a5a:	48 8d b4 24 40 20 00 	lea    0x2040(%rsp),%rsi
  402a61:	00 
  402a62:	48 8d 7c 24 30       	lea    0x30(%rsp),%rdi
  402a67:	e8 6b f8 ff ff       	callq  4022d7 <rio_readlineb>
  402a6c:	48 85 c0             	test   %rax,%rax
  402a6f:	0f 8f 83 00 00 00    	jg     402af8 <submitr+0x66a>
  402a75:	48 b8 45 72 72 6f 72 	movabs $0x43203a726f727245,%rax
  402a7c:	3a 20 43 
  402a7f:	48 89 03             	mov    %rax,(%rbx)
  402a82:	48 b8 6c 69 65 6e 74 	movabs $0x6e7520746e65696c,%rax
  402a89:	20 75 6e 
  402a8c:	48 89 43 08          	mov    %rax,0x8(%rbx)
  402a90:	48 b8 61 62 6c 65 20 	movabs $0x206f7420656c6261,%rax
  402a97:	74 6f 20 
  402a9a:	48 89 43 10          	mov    %rax,0x10(%rbx)
  402a9e:	48 b8 72 65 61 64 20 	movabs $0x6174732064616572,%rax
  402aa5:	73 74 61 
  402aa8:	48 89 43 18          	mov    %rax,0x18(%rbx)
  402aac:	48 b8 74 75 73 20 6d 	movabs $0x7373656d20737574,%rax
  402ab3:	65 73 73 
  402ab6:	48 89 43 20          	mov    %rax,0x20(%rbx)
  402aba:	48 b8 61 67 65 20 66 	movabs $0x6d6f726620656761,%rax
  402ac1:	72 6f 6d 
  402ac4:	48 89 43 28          	mov    %rax,0x28(%rbx)
  402ac8:	48 b8 20 72 65 73 75 	movabs $0x20746c7573657220,%rax
  402acf:	6c 74 20 
  402ad2:	48 89 43 30          	mov    %rax,0x30(%rbx)
  402ad6:	c7 43 38 73 65 72 76 	movl   $0x76726573,0x38(%rbx)
  402add:	66 c7 43 3c 65 72    	movw   $0x7265,0x3c(%rbx)
  402ae3:	c6 43 3e 00          	movb   $0x0,0x3e(%rbx)
  402ae7:	89 ef                	mov    %ebp,%edi
  402ae9:	e8 42 e2 ff ff       	callq  400d30 <close@plt>
  402aee:	b8 ff ff ff ff       	mov    $0xffffffff,%eax
  402af3:	e9 dc 00 00 00       	jmpq   402bd4 <submitr+0x746>
  402af8:	44 8b 44 24 1c       	mov    0x1c(%rsp),%r8d
  402afd:	41 81 f8 c8 00 00 00 	cmp    $0xc8,%r8d
  402b04:	74 37                	je     402b3d <submitr+0x6af>
  402b06:	4c 8d 8c 24 40 80 00 	lea    0x8040(%rsp),%r9
  402b0d:	00 
  402b0e:	b9 38 38 40 00       	mov    $0x403838,%ecx
  402b13:	48 c7 c2 ff ff ff ff 	mov    $0xffffffffffffffff,%rdx
  402b1a:	be 01 00 00 00       	mov    $0x1,%esi
  402b1f:	48 89 df             	mov    %rbx,%rdi
  402b22:	b8 00 00 00 00       	mov    $0x0,%eax
  402b27:	e8 54 e3 ff ff       	callq  400e80 <__sprintf_chk@plt>
  402b2c:	89 ef                	mov    %ebp,%edi
  402b2e:	e8 fd e1 ff ff       	callq  400d30 <close@plt>
  402b33:	b8 ff ff ff ff       	mov    $0xffffffff,%eax
  402b38:	e9 97 00 00 00       	jmpq   402bd4 <submitr+0x746>
  402b3d:	48 8d b4 24 40 20 00 	lea    0x2040(%rsp),%rsi
  402b44:	00 
  402b45:	48 89 df             	mov    %rbx,%rdi
  402b48:	e8 73 e1 ff ff       	callq  400cc0 <strcpy@plt>
  402b4d:	89 ef                	mov    %ebp,%edi
  402b4f:	e8 dc e1 ff ff       	callq  400d30 <close@plt>
  402b54:	0f b6 03             	movzbl (%rbx),%eax
  402b57:	ba 4f 00 00 00       	mov    $0x4f,%edx
  402b5c:	29 c2                	sub    %eax,%edx
  402b5e:	75 22                	jne    402b82 <submitr+0x6f4>
  402b60:	0f b6 4b 01          	movzbl 0x1(%rbx),%ecx
  402b64:	b8 4b 00 00 00       	mov    $0x4b,%eax
  402b69:	29 c8                	sub    %ecx,%eax
  402b6b:	75 17                	jne    402b84 <submitr+0x6f6>
  402b6d:	0f b6 4b 02          	movzbl 0x2(%rbx),%ecx
  402b71:	b8 0a 00 00 00       	mov    $0xa,%eax
  402b76:	29 c8                	sub    %ecx,%eax
  402b78:	75 0a                	jne    402b84 <submitr+0x6f6>
  402b7a:	0f b6 43 03          	movzbl 0x3(%rbx),%eax
  402b7e:	f7 d8                	neg    %eax
  402b80:	eb 02                	jmp    402b84 <submitr+0x6f6>
  402b82:	89 d0                	mov    %edx,%eax
  402b84:	85 c0                	test   %eax,%eax
  402b86:	74 40                	je     402bc8 <submitr+0x73a>
  402b88:	bf 80 38 40 00       	mov    $0x403880,%edi
  402b8d:	b9 05 00 00 00       	mov    $0x5,%ecx
  402b92:	48 89 de             	mov    %rbx,%rsi
  402b95:	f3 a6                	repz cmpsb %es:(%rdi),%ds:(%rsi)
  402b97:	0f 97 c0             	seta   %al
  402b9a:	0f 92 c1             	setb   %cl
  402b9d:	29 c8                	sub    %ecx,%eax
  402b9f:	0f be c0             	movsbl %al,%eax
  402ba2:	85 c0                	test   %eax,%eax
  402ba4:	74 2e                	je     402bd4 <submitr+0x746>
  402ba6:	85 d2                	test   %edx,%edx
  402ba8:	75 13                	jne    402bbd <submitr+0x72f>
  402baa:	0f b6 43 01          	movzbl 0x1(%rbx),%eax
  402bae:	ba 4b 00 00 00       	mov    $0x4b,%edx
  402bb3:	29 c2                	sub    %eax,%edx
  402bb5:	75 06                	jne    402bbd <submitr+0x72f>
  402bb7:	0f b6 53 02          	movzbl 0x2(%rbx),%edx
  402bbb:	f7 da                	neg    %edx
  402bbd:	85 d2                	test   %edx,%edx
  402bbf:	75 0e                	jne    402bcf <submitr+0x741>
  402bc1:	b8 00 00 00 00       	mov    $0x0,%eax
  402bc6:	eb 0c                	jmp    402bd4 <submitr+0x746>
  402bc8:	b8 00 00 00 00       	mov    $0x0,%eax
  402bcd:	eb 05                	jmp    402bd4 <submitr+0x746>
  402bcf:	b8 ff ff ff ff       	mov    $0xffffffff,%eax
  402bd4:	48 8b 9c 24 48 a0 00 	mov    0xa048(%rsp),%rbx
  402bdb:	00 
  402bdc:	64 48 33 1c 25 28 00 	xor    %fs:0x28,%rbx
  402be3:	00 00 
  402be5:	74 05                	je     402bec <submitr+0x75e>
  402be7:	e8 04 e1 ff ff       	callq  400cf0 <__stack_chk_fail@plt>
  402bec:	48 81 c4 58 a0 00 00 	add    $0xa058,%rsp
  402bf3:	5b                   	pop    %rbx
  402bf4:	5d                   	pop    %rbp
  402bf5:	41 5c                	pop    %r12
  402bf7:	41 5d                	pop    %r13
  402bf9:	41 5e                	pop    %r14
  402bfb:	41 5f                	pop    %r15
  402bfd:	c3                   	retq   

0000000000402bfe <init_timeout>:
  402bfe:	85 ff                	test   %edi,%edi
  402c00:	74 23                	je     402c25 <init_timeout+0x27>
  402c02:	53                   	push   %rbx
  402c03:	89 fb                	mov    %edi,%ebx
  402c05:	85 ff                	test   %edi,%edi
  402c07:	79 05                	jns    402c0e <init_timeout+0x10>
  402c09:	bb 00 00 00 00       	mov    $0x0,%ebx
  402c0e:	be c2 21 40 00       	mov    $0x4021c2,%esi
  402c13:	bf 0e 00 00 00       	mov    $0xe,%edi
  402c18:	e8 43 e1 ff ff       	callq  400d60 <signal@plt>
  402c1d:	89 df                	mov    %ebx,%edi
  402c1f:	e8 fc e0 ff ff       	callq  400d20 <alarm@plt>
  402c24:	5b                   	pop    %rbx
  402c25:	f3 c3                	repz retq 

0000000000402c27 <init_driver>:
  402c27:	55                   	push   %rbp
  402c28:	53                   	push   %rbx
  402c29:	48 83 ec 28          	sub    $0x28,%rsp
  402c2d:	48 89 fd             	mov    %rdi,%rbp
  402c30:	64 48 8b 04 25 28 00 	mov    %fs:0x28,%rax
  402c37:	00 00 
  402c39:	48 89 44 24 18       	mov    %rax,0x18(%rsp)
  402c3e:	31 c0                	xor    %eax,%eax
  402c40:	be 01 00 00 00       	mov    $0x1,%esi
  402c45:	bf 0d 00 00 00       	mov    $0xd,%edi
  402c4a:	e8 11 e1 ff ff       	callq  400d60 <signal@plt>
  402c4f:	be 01 00 00 00       	mov    $0x1,%esi
  402c54:	bf 1d 00 00 00       	mov    $0x1d,%edi
  402c59:	e8 02 e1 ff ff       	callq  400d60 <signal@plt>
  402c5e:	be 01 00 00 00       	mov    $0x1,%esi
  402c63:	bf 1d 00 00 00       	mov    $0x1d,%edi
  402c68:	e8 f3 e0 ff ff       	callq  400d60 <signal@plt>
  402c6d:	ba 00 00 00 00       	mov    $0x0,%edx
  402c72:	be 01 00 00 00       	mov    $0x1,%esi
  402c77:	bf 02 00 00 00       	mov    $0x2,%edi
  402c7c:	e8 0f e2 ff ff       	callq  400e90 <socket@plt>
  402c81:	85 c0                	test   %eax,%eax
  402c83:	79 4f                	jns    402cd4 <init_driver+0xad>
  402c85:	48 b8 45 72 72 6f 72 	movabs $0x43203a726f727245,%rax
  402c8c:	3a 20 43 
  402c8f:	48 89 45 00          	mov    %rax,0x0(%rbp)
  402c93:	48 b8 6c 69 65 6e 74 	movabs $0x6e7520746e65696c,%rax
  402c9a:	20 75 6e 
  402c9d:	48 89 45 08          	mov    %rax,0x8(%rbp)
  402ca1:	48 b8 61 62 6c 65 20 	movabs $0x206f7420656c6261,%rax
  402ca8:	74 6f 20 
  402cab:	48 89 45 10          	mov    %rax,0x10(%rbp)
  402caf:	48 b8 63 72 65 61 74 	movabs $0x7320657461657263,%rax
  402cb6:	65 20 73 
  402cb9:	48 89 45 18          	mov    %rax,0x18(%rbp)
  402cbd:	c7 45 20 6f 63 6b 65 	movl   $0x656b636f,0x20(%rbp)
  402cc4:	66 c7 45 24 74 00    	movw   $0x74,0x24(%rbp)
  402cca:	b8 ff ff ff ff       	mov    $0xffffffff,%eax
  402ccf:	e9 2a 01 00 00       	jmpq   402dfe <init_driver+0x1d7>
  402cd4:	89 c3                	mov    %eax,%ebx
  402cd6:	bf 85 38 40 00       	mov    $0x403885,%edi
  402cdb:	e8 90 e0 ff ff       	callq  400d70 <gethostbyname@plt>
  402ce0:	48 85 c0             	test   %rax,%rax
  402ce3:	75 68                	jne    402d4d <init_driver+0x126>
  402ce5:	48 b8 45 72 72 6f 72 	movabs $0x44203a726f727245,%rax
  402cec:	3a 20 44 
  402cef:	48 89 45 00          	mov    %rax,0x0(%rbp)
  402cf3:	48 b8 4e 53 20 69 73 	movabs $0x6e7520736920534e,%rax
  402cfa:	20 75 6e 
  402cfd:	48 89 45 08          	mov    %rax,0x8(%rbp)
  402d01:	48 b8 61 62 6c 65 20 	movabs $0x206f7420656c6261,%rax
  402d08:	74 6f 20 
  402d0b:	48 89 45 10          	mov    %rax,0x10(%rbp)
  402d0f:	48 b8 72 65 73 6f 6c 	movabs $0x2065766c6f736572,%rax
  402d16:	76 65 20 
  402d19:	48 89 45 18          	mov    %rax,0x18(%rbp)
  402d1d:	48 b8 73 65 72 76 65 	movabs $0x6120726576726573,%rax
  402d24:	72 20 61 
  402d27:	48 89 45 20          	mov    %rax,0x20(%rbp)
  402d2b:	c7 45 28 64 64 72 65 	movl   $0x65726464,0x28(%rbp)
  402d32:	66 c7 45 2c 73 73    	movw   $0x7373,0x2c(%rbp)
  402d38:	c6 45 2e 00          	movb   $0x0,0x2e(%rbp)
  402d3c:	89 df                	mov    %ebx,%edi
  402d3e:	e8 ed df ff ff       	callq  400d30 <close@plt>
  402d43:	b8 ff ff ff ff       	mov    $0xffffffff,%eax
  402d48:	e9 b1 00 00 00       	jmpq   402dfe <init_driver+0x1d7>
  402d4d:	48 c7 04 24 00 00 00 	movq   $0x0,(%rsp)
  402d54:	00 
  402d55:	48 c7 44 24 08 00 00 	movq   $0x0,0x8(%rsp)
  402d5c:	00 00 
  402d5e:	66 c7 04 24 02 00    	movw   $0x2,(%rsp)
  402d64:	48 63 50 14          	movslq 0x14(%rax),%rdx
  402d68:	48 8b 40 18          	mov    0x18(%rax),%rax
  402d6c:	48 8b 30             	mov    (%rax),%rsi
  402d6f:	48 8d 7c 24 04       	lea    0x4(%rsp),%rdi
  402d74:	b9 0c 00 00 00       	mov    $0xc,%ecx
  402d79:	e8 02 e0 ff ff       	callq  400d80 <__memmove_chk@plt>
  402d7e:	66 c7 44 24 02 3c 9a 	movw   $0x9a3c,0x2(%rsp)
  402d85:	ba 10 00 00 00       	mov    $0x10,%edx
  402d8a:	48 89 e6             	mov    %rsp,%rsi
  402d8d:	89 df                	mov    %ebx,%edi
  402d8f:	e8 cc e0 ff ff       	callq  400e60 <connect@plt>
  402d94:	85 c0                	test   %eax,%eax
  402d96:	79 50                	jns    402de8 <init_driver+0x1c1>
  402d98:	48 b8 45 72 72 6f 72 	movabs $0x55203a726f727245,%rax
  402d9f:	3a 20 55 
  402da2:	48 89 45 00          	mov    %rax,0x0(%rbp)
  402da6:	48 b8 6e 61 62 6c 65 	movabs $0x6f7420656c62616e,%rax
  402dad:	20 74 6f 
  402db0:	48 89 45 08          	mov    %rax,0x8(%rbp)
  402db4:	48 b8 20 63 6f 6e 6e 	movabs $0x7463656e6e6f6320,%rax
  402dbb:	65 63 74 
  402dbe:	48 89 45 10          	mov    %rax,0x10(%rbp)
  402dc2:	48 b8 20 74 6f 20 73 	movabs $0x76726573206f7420,%rax
  402dc9:	65 72 76 
  402dcc:	48 89 45 18          	mov    %rax,0x18(%rbp)
  402dd0:	66 c7 45 20 65 72    	movw   $0x7265,0x20(%rbp)
  402dd6:	c6 45 22 00          	movb   $0x0,0x22(%rbp)
  402dda:	89 df                	mov    %ebx,%edi
  402ddc:	e8 4f df ff ff       	callq  400d30 <close@plt>
  402de1:	b8 ff ff ff ff       	mov    $0xffffffff,%eax
  402de6:	eb 16                	jmp    402dfe <init_driver+0x1d7>
  402de8:	89 df                	mov    %ebx,%edi
  402dea:	e8 41 df ff ff       	callq  400d30 <close@plt>
  402def:	66 c7 45 00 4f 4b    	movw   $0x4b4f,0x0(%rbp)
  402df5:	c6 45 02 00          	movb   $0x0,0x2(%rbp)
  402df9:	b8 00 00 00 00       	mov    $0x0,%eax
  402dfe:	48 8b 4c 24 18       	mov    0x18(%rsp),%rcx
  402e03:	64 48 33 0c 25 28 00 	xor    %fs:0x28,%rcx
  402e0a:	00 00 
  402e0c:	74 05                	je     402e13 <init_driver+0x1ec>
  402e0e:	e8 dd de ff ff       	callq  400cf0 <__stack_chk_fail@plt>
  402e13:	48 83 c4 28          	add    $0x28,%rsp
  402e17:	5b                   	pop    %rbx
  402e18:	5d                   	pop    %rbp
  402e19:	c3                   	retq   

0000000000402e1a <driver_post>:
  402e1a:	53                   	push   %rbx
  402e1b:	4c 89 cb             	mov    %r9,%rbx
  402e1e:	45 85 c0             	test   %r8d,%r8d
  402e21:	74 27                	je     402e4a <driver_post+0x30>
  402e23:	48 89 ca             	mov    %rcx,%rdx
  402e26:	be 9c 38 40 00       	mov    $0x40389c,%esi
  402e2b:	bf 01 00 00 00       	mov    $0x1,%edi
  402e30:	b8 00 00 00 00       	mov    $0x0,%eax
  402e35:	e8 c6 df ff ff       	callq  400e00 <__printf_chk@plt>
  402e3a:	66 c7 03 4f 4b       	movw   $0x4b4f,(%rbx)
  402e3f:	c6 43 02 00          	movb   $0x0,0x2(%rbx)
  402e43:	b8 00 00 00 00       	mov    $0x0,%eax
  402e48:	eb 3f                	jmp    402e89 <driver_post+0x6f>
  402e4a:	48 85 ff             	test   %rdi,%rdi
  402e4d:	74 2c                	je     402e7b <driver_post+0x61>
  402e4f:	80 3f 00             	cmpb   $0x0,(%rdi)
  402e52:	74 27                	je     402e7b <driver_post+0x61>
  402e54:	48 83 ec 08          	sub    $0x8,%rsp
  402e58:	41 51                	push   %r9
  402e5a:	49 89 c9             	mov    %rcx,%r9
  402e5d:	49 89 d0             	mov    %rdx,%r8
  402e60:	48 89 f9             	mov    %rdi,%rcx
  402e63:	48 89 f2             	mov    %rsi,%rdx
  402e66:	be 9a 3c 00 00       	mov    $0x3c9a,%esi
  402e6b:	bf 85 38 40 00       	mov    $0x403885,%edi
  402e70:	e8 19 f6 ff ff       	callq  40248e <submitr>
  402e75:	48 83 c4 10          	add    $0x10,%rsp
  402e79:	eb 0e                	jmp    402e89 <driver_post+0x6f>
  402e7b:	66 c7 03 4f 4b       	movw   $0x4b4f,(%rbx)
  402e80:	c6 43 02 00          	movb   $0x0,0x2(%rbx)
  402e84:	b8 00 00 00 00       	mov    $0x0,%eax
  402e89:	5b                   	pop    %rbx
  402e8a:	c3                   	retq   

0000000000402e8b <check>:
  402e8b:	89 f8                	mov    %edi,%eax
  402e8d:	c1 e8 1c             	shr    $0x1c,%eax
  402e90:	85 c0                	test   %eax,%eax
  402e92:	74 1d                	je     402eb1 <check+0x26>
  402e94:	b9 00 00 00 00       	mov    $0x0,%ecx
  402e99:	eb 0b                	jmp    402ea6 <check+0x1b>
  402e9b:	89 f8                	mov    %edi,%eax
  402e9d:	d3 e8                	shr    %cl,%eax
  402e9f:	3c 0a                	cmp    $0xa,%al
  402ea1:	74 14                	je     402eb7 <check+0x2c>
  402ea3:	83 c1 08             	add    $0x8,%ecx
  402ea6:	83 f9 1f             	cmp    $0x1f,%ecx
  402ea9:	7e f0                	jle    402e9b <check+0x10>
  402eab:	b8 01 00 00 00       	mov    $0x1,%eax
  402eb0:	c3                   	retq   
  402eb1:	b8 00 00 00 00       	mov    $0x0,%eax
  402eb6:	c3                   	retq   
  402eb7:	b8 00 00 00 00       	mov    $0x0,%eax
  402ebc:	c3                   	retq   

0000000000402ebd <gencookie>:
  402ebd:	53                   	push   %rbx
  402ebe:	83 c7 01             	add    $0x1,%edi
  402ec1:	e8 da dd ff ff       	callq  400ca0 <srandom@plt>
  402ec6:	e8 f5 de ff ff       	callq  400dc0 <random@plt>
  402ecb:	89 c3                	mov    %eax,%ebx
  402ecd:	89 c7                	mov    %eax,%edi
  402ecf:	e8 b7 ff ff ff       	callq  402e8b <check>
  402ed4:	85 c0                	test   %eax,%eax
  402ed6:	74 ee                	je     402ec6 <gencookie+0x9>
  402ed8:	89 d8                	mov    %ebx,%eax
  402eda:	5b                   	pop    %rbx
  402edb:	c3                   	retq   
  402edc:	0f 1f 40 00          	nopl   0x0(%rax)

0000000000402ee0 <__libc_csu_init>:
  402ee0:	41 57                	push   %r15
  402ee2:	41 56                	push   %r14
  402ee4:	41 89 ff             	mov    %edi,%r15d
  402ee7:	41 55                	push   %r13
  402ee9:	41 54                	push   %r12
  402eeb:	4c 8d 25 1e 1f 20 00 	lea    0x201f1e(%rip),%r12        # 604e10 <__frame_dummy_init_array_entry>
  402ef2:	55                   	push   %rbp
  402ef3:	48 8d 2d 1e 1f 20 00 	lea    0x201f1e(%rip),%rbp        # 604e18 <__init_array_end>
  402efa:	53                   	push   %rbx
  402efb:	49 89 f6             	mov    %rsi,%r14
  402efe:	49 89 d5             	mov    %rdx,%r13
  402f01:	4c 29 e5             	sub    %r12,%rbp
  402f04:	48 83 ec 08          	sub    $0x8,%rsp
  402f08:	48 c1 fd 03          	sar    $0x3,%rbp
  402f0c:	e8 37 dd ff ff       	callq  400c48 <_init>
  402f11:	48 85 ed             	test   %rbp,%rbp
  402f14:	74 20                	je     402f36 <__libc_csu_init+0x56>
  402f16:	31 db                	xor    %ebx,%ebx
  402f18:	0f 1f 84 00 00 00 00 	nopl   0x0(%rax,%rax,1)
  402f1f:	00 
  402f20:	4c 89 ea             	mov    %r13,%rdx
  402f23:	4c 89 f6             	mov    %r14,%rsi
  402f26:	44 89 ff             	mov    %r15d,%edi
  402f29:	41 ff 14 dc          	callq  *(%r12,%rbx,8)
  402f2d:	48 83 c3 01          	add    $0x1,%rbx
  402f31:	48 39 eb             	cmp    %rbp,%rbx
  402f34:	75 ea                	jne    402f20 <__libc_csu_init+0x40>
  402f36:	48 83 c4 08          	add    $0x8,%rsp
  402f3a:	5b                   	pop    %rbx
  402f3b:	5d                   	pop    %rbp
  402f3c:	41 5c                	pop    %r12
  402f3e:	41 5d                	pop    %r13
  402f40:	41 5e                	pop    %r14
  402f42:	41 5f                	pop    %r15
  402f44:	c3                   	retq   
  402f45:	90                   	nop
  402f46:	66 2e 0f 1f 84 00 00 	nopw   %cs:0x0(%rax,%rax,1)
  402f4d:	00 00 00 

0000000000402f50 <__libc_csu_fini>:
  402f50:	f3 c3                	repz retq 

Disassembly of section .fini:

0000000000402f54 <_fini>:
  402f54:	48 83 ec 08          	sub    $0x8,%rsp
  402f58:	48 83 c4 08          	add    $0x8,%rsp
  402f5c:	c3                   	retq   
